	.file	"Logger.cpp"
	.text
.Ltext0:
	.file 0 "/home/arsenyfucker/Desktop/PROJECTS/HashTable" "./ATC/Logger/Logger.cpp"
	.section	.rodata.str1.1,"aMS",@progbits,1
.LC0:
	.string	"w"
.LC1:
	.string	"Logfile name '%s'\n"
	.section	.rodata.str1.8,"aMS",@progbits,1
	.align 8
.LC2:
	.string	"Ebat, lox, You can't even open logfile\n"
	.section	.rodata.str1.1
.LC3:
	.string	"%s\n"
	.section	.text.unlikely,"ax",@progbits
	.align 2
.LCOLDB4:
	.text
.LHOTB4:
	.align 2
	.p2align 4
	.section	.text.unlikely
.Ltext_cold0:
	.text
	.globl	_ZN6LoggerC2EPKc
	.type	_ZN6LoggerC2EPKc, @function
_ZN6LoggerC2EPKc:
.LVL0:
.LFB2467:
	.file 1 "./ATC/Logger/Logger.cpp"
	.loc 1 18 1 view -0
	.cfi_startproc
	.cfi_personality 0x9b,DW.ref.__gxx_personality_v0
	.cfi_lsda 0x1b,.LLSDA2467
	.loc 1 18 1 is_stmt 0 view .LVU1
	endbr64
.LVL1:
.LBB128:
.LBB129:
.LBI129:
	.file 2 "/usr/include/c++/11/ostream"
	.loc 2 397 7 is_stmt 1 view .LVU2
.LBE129:
.LBE128:
	.loc 1 18 1 is_stmt 0 view .LVU3
	pushq	%rbp
	.cfi_def_cfa_offset 16
	.cfi_offset 6, -16
	movq	%rsp, %rbp
	.cfi_def_cfa_register 6
	pushq	%r13
	.cfi_offset 13, -24
	movq	%rdx, %r13
	pushq	%r12
	.cfi_offset 12, -32
	movq	%rsi, %r12
	pushq	%rbx
	.cfi_offset 3, -40
	movq	%rdi, %rbx
	subq	$24, %rsp
.LBB149:
.LBB131:
.LBB130:
	.loc 2 398 7 view .LVU4
	movq	8(%rsi), %rax
	movq	%rax, (%rdi)
	movq	-24(%rax), %rdi
.LVL2:
	.loc 2 398 7 view .LVU5
	movq	16(%rsi), %rax
	.loc 2 398 19 view .LVU6
	xorl	%esi, %esi
.LVL3:
	.loc 2 398 7 view .LVU7
	addq	%rbx, %rdi
	movq	%rax, (%rdi)
.LEHB0:
	.loc 2 398 19 view .LVU8
	call	_ZNSt9basic_iosIcSt11char_traitsIcEE4initEPSt15basic_streambufIcS1_E@PLT
.LVL4:
.LEHE0:
	.loc 2 398 19 view .LVU9
.LBE130:
.LBE131:
	.loc 1 18 91 view .LVU10
	movq	(%r12), %rax
	movq	24(%r12), %rdx
.LBB132:
	.loc 1 22 31 view .LVU11
	movq	%r13, %rdi
	leaq	.LC0(%rip), %rsi
.LBE132:
	.loc 1 18 91 view .LVU12
	movq	%rax, (%rbx)
	movq	-24(%rax), %rax
	movq	%rdx, (%rbx,%rax)
	.loc 1 18 41 view .LVU13
	movq	$0, 8(%rbx)
	.loc 1 18 54 view .LVU14
	movq	$0, 16(%rbx)
	.loc 1 18 75 view .LVU15
	movq	%r13, 24(%rbx)
.LBE149:
	.loc 1 20 13 is_stmt 1 view .LVU16
.LBB150:
.LBB141:
	.loc 1 22 16 view .LVU17
.LEHB1:
	.loc 1 22 31 is_stmt 0 view .LVU18
	call	fopen@PLT
.LVL5:
	.loc 1 22 23 view .LVU19
	movq	%rax, 8(%rbx)
	.loc 1 24 16 is_stmt 1 view .LVU20
	.loc 1 22 31 is_stmt 0 view .LVU21
	movq	%rax, %rdi
	.loc 1 24 16 view .LVU22
	testq	%rax, %rax
	je	.L17
	.loc 1 30 16 is_stmt 1 view .LVU23
	.loc 1 30 23 is_stmt 0 view .LVU24
	xorl	%ecx, %ecx
	movl	$2, %edx
	xorl	%esi, %esi
	call	setvbuf@PLT
.LVL6:
	.loc 1 32 16 is_stmt 1 view .LVU25
	.loc 1 32 41 is_stmt 0 view .LVU26
	xorl	%edi, %edi
	call	time@PLT
.LVL7:
	.loc 1 33 24 view .LVU27
	leaq	-40(%rbp), %rdi
	.loc 1 32 45 view .LVU28
	movq	%rax, -40(%rbp)
	.loc 1 33 16 is_stmt 1 view .LVU29
	.loc 1 33 24 is_stmt 0 view .LVU30
	call	ctime@PLT
.LVL8:
.LBB133:
.LBB134:
	.file 3 "/usr/include/x86_64-linux-gnu/bits/stdio2.h"
	.loc 3 105 24 view .LVU31
	movq	8(%rbx), %rdi
	movl	$1, %esi
	leaq	.LC3(%rip), %rdx
.LBE134:
.LBE133:
	.loc 1 33 24 view .LVU32
	movq	%rax, %rcx
.LVL9:
.LBB136:
.LBI133:
	.loc 3 103 1 is_stmt 1 view .LVU33
.LBB135:
	.loc 3 105 3 view .LVU34
	.loc 3 105 24 is_stmt 0 view .LVU35
	xorl	%eax, %eax
	call	__fprintf_chk@PLT
.LVL10:
	.loc 3 105 24 view .LVU36
.LBE135:
.LBE136:
.LBE141:
.LBE150:
	.loc 1 39 13 view .LVU37
	addq	$24, %rsp
	popq	%rbx
.LVL11:
	.loc 1 39 13 view .LVU38
	popq	%r12
.LVL12:
	.loc 1 39 13 view .LVU39
	popq	%r13
.LVL13:
	.loc 1 39 13 view .LVU40
	popq	%rbp
	.cfi_remember_state
	.cfi_def_cfa 7, 8
	ret
.LVL14:
.L17:
	.cfi_restore_state
.LBB151:
.LBB142:
	.loc 1 26 21 is_stmt 1 view .LVU41
.LBB137:
.LBI137:
	.loc 3 110 1 view .LVU42
.LBB138:
	.loc 3 112 3 view .LVU43
	.loc 3 112 23 is_stmt 0 view .LVU44
	movq	%r13, %rdx
	leaq	.LC1(%rip), %rsi
	movl	$1, %edi
	xorl	%eax, %eax
	call	__printf_chk@PLT
.LVL15:
.LEHE1:
	.loc 3 112 62 view .LVU45
	jmp	.L11
.LVL16:
.L9:
	.loc 3 112 62 view .LVU46
	endbr64
	jmp	.L10
.LVL17:
	.loc 3 112 62 view .LVU47
.LBE138:
.LBE137:
.LBE142:
.LBE151:
	.globl	__gxx_personality_v0
	.section	.gcc_except_table,"a",@progbits
	.align 4
.LLSDA2467:
	.byte	0xff
	.byte	0x9b
	.uleb128 .LLSDATT2467-.LLSDATTD2467
.LLSDATTD2467:
	.byte	0x1
	.uleb128 .LLSDACSE2467-.LLSDACSB2467
.LLSDACSB2467:
	.uleb128 .LEHB0-.LFB2467
	.uleb128 .LEHE0-.LEHB0
	.uleb128 0
	.uleb128 0
	.uleb128 .LEHB1-.LFB2467
	.uleb128 .LEHE1-.LEHB1
	.uleb128 .L9-.LFB2467
	.uleb128 0x3
.LLSDACSE2467:
	.byte	0
	.byte	0
	.byte	0x1
	.byte	0x7d
	.align 4
	.long	DW.ref._ZTIPKc-.
.LLSDATT2467:
	.text
	.cfi_endproc
	.section	.text.unlikely
	.cfi_startproc
	.cfi_personality 0x9b,DW.ref.__gxx_personality_v0
	.cfi_lsda 0x1b,.LLSDAC2467
	.type	_ZN6LoggerC2EPKc.cold, @function
_ZN6LoggerC2EPKc.cold:
.LFSB2467:
.LBB152:
.LBB143:
.LBB140:
.LBB139:
.L11:
	.cfi_def_cfa 6, 16
	.cfi_offset 3, -40
	.cfi_offset 6, -16
	.cfi_offset 12, -32
	.cfi_offset 13, -24
.LVL18:
	.loc 3 112 62 view -0
.LBE139:
.LBE140:
	.loc 1 27 21 is_stmt 1 view .LVU49
	.loc 1 27 27 is_stmt 0 view .LVU50
	movl	$8, %edi
	call	__cxa_allocate_exception@PLT
.LVL19:
	xorl	%edx, %edx
	leaq	_ZTIPKc(%rip), %rsi
	movq	%rax, %rdi
	.loc 1 27 21 view .LVU51
	leaq	.LC2(%rip), %rax
	movq	%rax, (%rdi)
.LEHB2:
	.loc 1 27 27 view .LVU52
	call	__cxa_throw@PLT
.LVL20:
.LEHE2:
.L7:
	endbr64
.L10:
	.loc 1 27 27 view .LVU53
.LBE143:
.LBE152:
	.loc 1 35 13 view .LVU54
	movq	%rax, %rdi
	movq	%rdx, %rax
	subq	$1, %rax
	jne	.L13
.LBB153:
.LBB144:
	.loc 1 35 31 discriminator 1 view .LVU55
	vzeroupper
	call	__cxa_begin_catch@PLT
.LVL21:
	movq	%rax, %rdi
.LVL22:
	.loc 1 37 16 is_stmt 1 discriminator 1 view .LVU56
.LEHB3:
	.loc 1 37 23 is_stmt 0 discriminator 1 view .LVU57
	call	perror@PLT
.LVL23:
.LEHE3:
	.loc 1 37 23 discriminator 1 view .LVU58
.LBE144:
.LBE153:
	.loc 1 39 13 view .LVU59
	addq	$24, %rsp
	popq	%rbx
.LVL24:
	.loc 1 39 13 view .LVU60
	popq	%r12
.LVL25:
	.loc 1 39 13 view .LVU61
	popq	%r13
.LVL26:
	.loc 1 39 13 view .LVU62
	popq	%rbp
	.cfi_remember_state
	.cfi_def_cfa 7, 8
.LBB154:
.LBB145:
	.loc 1 38 16 view .LVU63
	jmp	__cxa_end_catch@PLT
.LVL27:
.L13:
	.cfi_restore_state
	.loc 1 38 16 view .LVU64
	vzeroupper
.LVL28:
.L5:
	.loc 1 38 16 view .LVU65
.LBE145:
.LBB146:
.LBI146:
	.loc 2 93 7 is_stmt 1 view .LVU66
.LBB147:
	.loc 2 93 26 is_stmt 0 view .LVU67
	movq	8(%r12), %rax
	movq	16(%r12), %rdx
	movq	%rax, (%rbx)
	movq	-24(%rax), %rax
	movq	%rdx, (%rbx,%rax)
.LVL29:
.LEHB4:
	.loc 2 93 26 view .LVU68
	call	_Unwind_Resume@PLT
.LVL30:
.LEHE4:
.L8:
	.loc 2 93 26 view .LVU69
	endbr64
.LBE147:
.LBE146:
.LBB148:
	.loc 1 38 16 view .LVU70
	movq	%rax, %r13
.LVL31:
	.loc 1 38 16 view .LVU71
	vzeroupper
	call	__cxa_end_catch@PLT
.LVL32:
	movq	%r13, %rdi
	jmp	.L5
.LBE148:
.LBE154:
	.cfi_endproc
.LFE2467:
	.section	.gcc_except_table
	.align 4
.LLSDAC2467:
	.byte	0xff
	.byte	0x9b
	.uleb128 .LLSDATTC2467-.LLSDATTDC2467
.LLSDATTDC2467:
	.byte	0x1
	.uleb128 .LLSDACSEC2467-.LLSDACSBC2467
.LLSDACSBC2467:
	.uleb128 .LEHB2-.LCOLDB4
	.uleb128 .LEHE2-.LEHB2
	.uleb128 .L7-.LCOLDB4
	.uleb128 0x3
	.uleb128 .LEHB3-.LCOLDB4
	.uleb128 .LEHE3-.LEHB3
	.uleb128 .L8-.LCOLDB4
	.uleb128 0
	.uleb128 .LEHB4-.LCOLDB4
	.uleb128 .LEHE4-.LEHB4
	.uleb128 0
	.uleb128 0
.LLSDACSEC2467:
	.byte	0
	.byte	0
	.byte	0x1
	.byte	0x7d
	.align 4
	.long	DW.ref._ZTIPKc-.
.LLSDATTC2467:
	.section	.text.unlikely
	.text
	.size	_ZN6LoggerC2EPKc, .-_ZN6LoggerC2EPKc
	.section	.text.unlikely
	.size	_ZN6LoggerC2EPKc.cold, .-_ZN6LoggerC2EPKc.cold
.LCOLDE4:
	.text
.LHOTE4:
	.section	.text.unlikely
	.align 2
.LCOLDB5:
	.text
.LHOTB5:
	.align 2
	.p2align 4
	.globl	_ZN6LoggerC1EPKc
	.type	_ZN6LoggerC1EPKc, @function
_ZN6LoggerC1EPKc:
.LVL33:
.LFB2468:
	.loc 1 18 1 is_stmt 1 view -0
	.cfi_startproc
	.cfi_personality 0x9b,DW.ref.__gxx_personality_v0
	.cfi_lsda 0x1b,.LLSDA2468
	.loc 1 18 1 is_stmt 0 view .LVU73
	endbr64
	pushq	%rbp
	.cfi_def_cfa_offset 16
	.cfi_offset 6, -16
	movq	%rsp, %rbp
	.cfi_def_cfa_register 6
	pushq	%r14
	.cfi_offset 14, -24
.LBB172:
.LBB173:
.LBB174:
.LBB175:
	.loc 2 398 7 view .LVU74
	leaq	24+_ZTC6Logger0_So(%rip), %r14
.LBE175:
.LBE174:
.LBE173:
.LBE172:
	.loc 1 18 1 view .LVU75
	pushq	%r13
	.cfi_offset 13, -32
.LBB215:
	.loc 1 18 91 view .LVU76
	leaq	32(%rdi), %r13
.LVL34:
.LBB182:
.LBI182:
	.file 4 "/usr/include/c++/11/bits/basic_ios.h"
	.loc 4 460 7 is_stmt 1 view .LVU77
.LBE182:
.LBE215:
	.loc 1 18 1 is_stmt 0 view .LVU78
	pushq	%r12
	.cfi_offset 12, -40
	movq	%rsi, %r12
	pushq	%rbx
	.cfi_offset 3, -48
	movq	%rdi, %rbx
.LBB216:
.LBB187:
.LBB183:
	.loc 4 462 59 view .LVU79
	movq	%r13, %rdi
.LVL35:
	.loc 4 462 59 view .LVU80
.LBE183:
.LBE187:
.LBE216:
	.loc 1 18 1 view .LVU81
	subq	$16, %rsp
.LBB217:
.LBB188:
.LBB184:
	.loc 4 462 59 view .LVU82
	call	_ZNSt8ios_baseC2Ev@PLT
.LVL36:
	.loc 4 461 32 view .LVU83
	xorl	%ecx, %ecx
.LBE184:
.LBE188:
.LBB189:
.LBB179:
.LBB176:
	.loc 2 398 7 view .LVU84
	leaq	40(%r14), %rax
	movq	%r14, (%rbx)
.LBE176:
.LBE179:
.LBE189:
.LBB190:
.LBB185:
	.loc 4 461 21 view .LVU85
	movq	$0, 248(%rbx)
.LBE185:
.LBE190:
.LBB191:
.LBB180:
.LBB177:
	.loc 2 398 19 view .LVU86
	xorl	%esi, %esi
	movq	%r13, %rdi
.LBE177:
.LBE180:
.LBE191:
.LBB192:
.LBB186:
	.loc 4 461 32 view .LVU87
	movw	%cx, 256(%rbx)
	.loc 4 462 2 view .LVU88
	movq	$0, 264(%rbx)
	.loc 4 462 19 view .LVU89
	movq	$0, 272(%rbx)
	.loc 4 462 32 view .LVU90
	movq	$0, 280(%rbx)
	.loc 4 462 47 view .LVU91
	movq	$0, 288(%rbx)
.LVL37:
	.loc 4 462 47 view .LVU92
.LBE186:
.LBE192:
.LBB193:
.LBI173:
	.loc 2 397 7 is_stmt 1 view .LVU93
.LBB181:
.LBB178:
	.loc 2 398 7 is_stmt 0 view .LVU94
	movq	%rax, 32(%rbx)
.LEHB5:
	.loc 2 398 19 view .LVU95
	call	_ZNSt9basic_iosIcSt11char_traitsIcEE4initEPSt15basic_streambufIcS1_E@PLT
.LVL38:
.LEHE5:
	.loc 2 398 19 view .LVU96
.LBE178:
.LBE181:
.LBE193:
	.loc 1 18 91 discriminator 1 view .LVU97
	leaq	24+_ZTV6Logger(%rip), %rax
	.loc 1 18 41 discriminator 1 view .LVU98
	movq	$0, 8(%rbx)
.LBB194:
	.loc 1 22 31 discriminator 1 view .LVU99
	movq	%r12, %rdi
	leaq	.LC0(%rip), %rsi
.LBE194:
	.loc 1 18 91 discriminator 1 view .LVU100
	movq	%rax, (%rbx)
	addq	$40, %rax
	movq	%rax, 32(%rbx)
	.loc 1 18 54 discriminator 1 view .LVU101
	movq	$0, 16(%rbx)
	.loc 1 18 75 discriminator 1 view .LVU102
	movq	%r12, 24(%rbx)
.LBE217:
	.loc 1 20 13 is_stmt 1 discriminator 1 view .LVU103
.LBB218:
.LBB201:
	.loc 1 22 16 discriminator 1 view .LVU104
.LEHB6:
	.loc 1 22 31 is_stmt 0 discriminator 1 view .LVU105
	call	fopen@PLT
.LVL39:
	.loc 1 22 23 discriminator 1 view .LVU106
	movq	%rax, 8(%rbx)
	.loc 1 24 16 is_stmt 1 discriminator 1 view .LVU107
	.loc 1 22 31 is_stmt 0 discriminator 1 view .LVU108
	movq	%rax, %rdi
	.loc 1 24 16 discriminator 1 view .LVU109
	testq	%rax, %rax
	je	.L35
	.loc 1 30 16 is_stmt 1 view .LVU110
	.loc 1 30 23 is_stmt 0 view .LVU111
	xorl	%ecx, %ecx
	movl	$2, %edx
	xorl	%esi, %esi
	call	setvbuf@PLT
.LVL40:
	.loc 1 32 16 is_stmt 1 view .LVU112
	.loc 1 32 41 is_stmt 0 view .LVU113
	xorl	%edi, %edi
	call	time@PLT
.LVL41:
	.loc 1 33 24 view .LVU114
	leaq	-40(%rbp), %rdi
	.loc 1 32 45 view .LVU115
	movq	%rax, -40(%rbp)
	.loc 1 33 16 is_stmt 1 view .LVU116
	.loc 1 33 24 is_stmt 0 view .LVU117
	call	ctime@PLT
.LVL42:
.LBB195:
.LBB196:
	.loc 3 105 24 view .LVU118
	movq	8(%rbx), %rdi
	movl	$1, %esi
	leaq	.LC3(%rip), %rdx
.LBE196:
.LBE195:
	.loc 1 33 24 view .LVU119
	movq	%rax, %rcx
.LVL43:
.LBB198:
.LBI195:
	.loc 3 103 1 is_stmt 1 view .LVU120
.LBB197:
	.loc 3 105 3 view .LVU121
	.loc 3 105 24 is_stmt 0 view .LVU122
	xorl	%eax, %eax
	call	__fprintf_chk@PLT
.LVL44:
	.loc 3 105 24 view .LVU123
.LBE197:
.LBE198:
.LBE201:
.LBE218:
	.loc 1 39 13 view .LVU124
	addq	$16, %rsp
	popq	%rbx
.LVL45:
	.loc 1 39 13 view .LVU125
	popq	%r12
.LVL46:
	.loc 1 39 13 view .LVU126
	popq	%r13
.LVL47:
	.loc 1 39 13 view .LVU127
	popq	%r14
	popq	%rbp
	.cfi_remember_state
	.cfi_def_cfa 7, 8
	ret
.LVL48:
.L35:
	.cfi_restore_state
.LBB219:
.LBB202:
	.loc 1 26 21 is_stmt 1 view .LVU128
.LBB199:
.LBI199:
	.loc 3 110 1 view .LVU129
.LBB200:
	.loc 3 112 3 view .LVU130
	.loc 3 112 23 is_stmt 0 view .LVU131
	movq	%r12, %rdx
	leaq	.LC1(%rip), %rsi
	movl	$1, %edi
	xorl	%eax, %eax
	call	__printf_chk@PLT
.LVL49:
.LEHE6:
	.loc 3 112 62 view .LVU132
	jmp	.L30
.LVL50:
.L28:
	.loc 3 112 62 view .LVU133
	endbr64
	jmp	.L29
.LVL51:
.L25:
	.loc 3 112 62 view .LVU134
	endbr64
.LBE200:
.LBE199:
.LBE202:
.LBB203:
.LBB204:
	.loc 4 282 22 view .LVU135
	movq	%rax, %r12
.LVL52:
	.loc 4 282 22 view .LVU136
	vzeroupper
	jmp	.L24
.LVL53:
	.loc 4 282 22 view .LVU137
.LBE204:
.LBE203:
.LBE219:
	.section	.gcc_except_table
	.align 4
.LLSDA2468:
	.byte	0xff
	.byte	0x9b
	.uleb128 .LLSDATT2468-.LLSDATTD2468
.LLSDATTD2468:
	.byte	0x1
	.uleb128 .LLSDACSE2468-.LLSDACSB2468
.LLSDACSB2468:
	.uleb128 .LEHB5-.LFB2468
	.uleb128 .LEHE5-.LEHB5
	.uleb128 .L25-.LFB2468
	.uleb128 0
	.uleb128 .LEHB6-.LFB2468
	.uleb128 .LEHE6-.LEHB6
	.uleb128 .L28-.LFB2468
	.uleb128 0x3
.LLSDACSE2468:
	.byte	0
	.byte	0
	.byte	0x1
	.byte	0x7d
	.align 4
	.long	DW.ref._ZTIPKc-.
.LLSDATT2468:
	.text
	.cfi_endproc
	.section	.text.unlikely
	.cfi_startproc
	.cfi_personality 0x9b,DW.ref.__gxx_personality_v0
	.cfi_lsda 0x1b,.LLSDAC2468
	.type	_ZN6LoggerC1EPKc.cold, @function
_ZN6LoggerC1EPKc.cold:
.LFSB2468:
.LBB220:
.LBB207:
.LBB205:
.L30:
	.cfi_def_cfa 6, 16
	.cfi_offset 3, -48
	.cfi_offset 6, -16
	.cfi_offset 12, -40
	.cfi_offset 13, -32
	.cfi_offset 14, -24
.LVL54:
	.loc 4 282 22 view .LVU72
.LBE205:
.LBE207:
.LBB208:
	.loc 1 27 21 is_stmt 1 view .LVU139
	.loc 1 27 27 is_stmt 0 view .LVU140
	movl	$8, %edi
	call	__cxa_allocate_exception@PLT
.LVL55:
	xorl	%edx, %edx
	leaq	_ZTIPKc(%rip), %rsi
	movq	%rax, %rdi
	.loc 1 27 21 view .LVU141
	leaq	.LC2(%rip), %rax
	movq	%rax, (%rdi)
.LEHB7:
	.loc 1 27 27 view .LVU142
	call	__cxa_throw@PLT
.LVL56:
.LEHE7:
.L26:
	endbr64
.L29:
	.loc 1 27 27 view .LVU143
.LBE208:
.LBE220:
	.loc 1 35 13 view .LVU144
	movq	%rax, %rdi
	movq	%rdx, %rax
	subq	$1, %rax
	jne	.L32
.LBB221:
.LBB209:
	.loc 1 35 31 discriminator 1 view .LVU145
	vzeroupper
	call	__cxa_begin_catch@PLT
.LVL57:
	movq	%rax, %rdi
.LVL58:
	.loc 1 37 16 is_stmt 1 discriminator 1 view .LVU146
.LEHB8:
	.loc 1 37 23 is_stmt 0 discriminator 1 view .LVU147
	call	perror@PLT
.LVL59:
.LEHE8:
	.loc 1 37 23 discriminator 1 view .LVU148
.LBE209:
.LBE221:
	.loc 1 39 13 view .LVU149
	popq	%rax
	popq	%rdx
	popq	%rbx
.LVL60:
	.loc 1 39 13 view .LVU150
	popq	%r12
.LVL61:
	.loc 1 39 13 view .LVU151
	popq	%r13
.LVL62:
	.loc 1 39 13 view .LVU152
	popq	%r14
	popq	%rbp
	.cfi_remember_state
	.cfi_def_cfa 7, 8
.LBB222:
.LBB210:
	.loc 1 38 16 view .LVU153
	jmp	__cxa_end_catch@PLT
.LVL63:
.L32:
	.cfi_restore_state
	.loc 1 38 16 view .LVU154
	vzeroupper
.LVL64:
.L22:
	.loc 1 38 16 view .LVU155
.LBE210:
.LBB211:
.LBI211:
	.loc 2 93 7 is_stmt 1 view .LVU156
.LBB212:
	.loc 2 93 26 is_stmt 0 view .LVU157
	movq	%r14, (%rbx)
.LVL65:
	.loc 2 93 26 view .LVU158
	movq	%rdi, %r12
.L24:
.LVL66:
	.loc 2 93 26 view .LVU159
.LBE212:
.LBE211:
.LBB213:
.LBI203:
	.loc 4 282 7 is_stmt 1 view .LVU160
.LBB206:
	.loc 4 282 22 is_stmt 0 view .LVU161
	leaq	16+_ZTVSt9basic_iosIcSt11char_traitsIcEE(%rip), %rax
	movq	%r13, %rdi
	movq	%rax, 32(%rbx)
	call	_ZNSt8ios_baseD2Ev@PLT
.LVL67:
	.loc 4 282 22 view .LVU162
	movq	%r12, %rdi
.LEHB9:
	call	_Unwind_Resume@PLT
.LVL68:
.LEHE9:
.L27:
	.loc 4 282 22 view .LVU163
	endbr64
.LBE206:
.LBE213:
.LBB214:
	.loc 1 38 16 view .LVU164
	movq	%rax, %r12
.LVL69:
	.loc 1 38 16 view .LVU165
	vzeroupper
	call	__cxa_end_catch@PLT
.LVL70:
	movq	%r12, %rdi
	jmp	.L22
.LBE214:
.LBE222:
	.cfi_endproc
.LFE2468:
	.section	.gcc_except_table
	.align 4
.LLSDAC2468:
	.byte	0xff
	.byte	0x9b
	.uleb128 .LLSDATTC2468-.LLSDATTDC2468
.LLSDATTDC2468:
	.byte	0x1
	.uleb128 .LLSDACSEC2468-.LLSDACSBC2468
.LLSDACSBC2468:
	.uleb128 .LEHB7-.LCOLDB5
	.uleb128 .LEHE7-.LEHB7
	.uleb128 .L26-.LCOLDB5
	.uleb128 0x3
	.uleb128 .LEHB8-.LCOLDB5
	.uleb128 .LEHE8-.LEHB8
	.uleb128 .L27-.LCOLDB5
	.uleb128 0
	.uleb128 .LEHB9-.LCOLDB5
	.uleb128 .LEHE9-.LEHB9
	.uleb128 0
	.uleb128 0
.LLSDACSEC2468:
	.byte	0
	.byte	0
	.byte	0x1
	.byte	0x7d
	.align 4
	.long	DW.ref._ZTIPKc-.
.LLSDATTC2468:
	.section	.text.unlikely
	.text
	.size	_ZN6LoggerC1EPKc, .-_ZN6LoggerC1EPKc
	.section	.text.unlikely
	.size	_ZN6LoggerC1EPKc.cold, .-_ZN6LoggerC1EPKc.cold
.LCOLDE5:
	.text
.LHOTE5:
	.section	.text.unlikely
	.align 2
.LCOLDB6:
	.text
.LHOTB6:
	.align 2
	.p2align 4
	.globl	_ZN6Logger11getInstanceEv
	.type	_ZN6Logger11getInstanceEv, @function
_ZN6Logger11getInstanceEv:
.LFB2469:
	.loc 1 42 13 is_stmt 1 view -0
	.cfi_startproc
	.cfi_personality 0x9b,DW.ref.__gxx_personality_v0
	.cfi_lsda 0x1b,.LLSDA2469
	endbr64
	.loc 1 43 13 view .LVU167
	.loc 1 42 13 is_stmt 0 view .LVU168
	pushq	%rbp
	.cfi_def_cfa_offset 16
	.cfi_offset 6, -16
	movq	%rsp, %rbp
	.cfi_def_cfa_register 6
	pushq	%r13
	pushq	%r12
	.cfi_offset 13, -24
	.cfi_offset 12, -32
	.loc 1 43 46 view .LVU169
	movzbl	_ZGVZN6Logger11getInstanceEvE6logger(%rip), %eax
	leaq	_ZZN6Logger11getInstanceEvE6logger(%rip), %r12
	testb	%al, %al
	je	.L47
.L44:
	.loc 1 46 13 view .LVU170
	movq	%r12, %rax
	popq	%r12
	popq	%r13
	popq	%rbp
	.cfi_remember_state
	.cfi_def_cfa 7, 8
	ret
	.p2align 4,,10
	.p2align 3
.L47:
	.cfi_restore_state
	.loc 1 43 46 discriminator 1 view .LVU171
	leaq	_ZGVZN6Logger11getInstanceEvE6logger(%rip), %r13
	leaq	_ZZN6Logger11getInstanceEvE6logger(%rip), %r12
	movq	%r13, %rdi
	call	__cxa_guard_acquire@PLT
.LVL71:
	testl	%eax, %eax
	je	.L44
	.loc 1 43 46 discriminator 2 view .LVU172
	leaq	_ZL12STD_LOG_NAME(%rip), %rsi
	movq	%r12, %rdi
.LEHB10:
	call	_ZN6LoggerC1EPKc
.LVL72:
.LEHE10:
.LBB225:
.LBI225:
	.loc 1 41 21 is_stmt 1 view .LVU173
.LBB226:
	.loc 1 43 46 is_stmt 0 view .LVU174
	movq	%r12, %rsi
	leaq	__dso_handle(%rip), %rdx
	leaq	_ZN6LoggerD1Ev(%rip), %rdi
	call	__cxa_atexit@PLT
.LVL73:
	movq	%r13, %rdi
	call	__cxa_guard_release@PLT
.LVL74:
.LBE226:
.LBE225:
	.loc 1 45 13 is_stmt 1 view .LVU175
	.loc 1 46 13 is_stmt 0 view .LVU176
	movq	%r12, %rax
	popq	%r12
	popq	%r13
	popq	%rbp
	.cfi_remember_state
	.cfi_def_cfa 7, 8
	ret
.L41:
	.cfi_restore_state
	endbr64
	.loc 1 43 46 view .LVU177
	movq	%rax, %r12
	jmp	.L40
	.section	.gcc_except_table
.LLSDA2469:
	.byte	0xff
	.byte	0xff
	.byte	0x1
	.uleb128 .LLSDACSE2469-.LLSDACSB2469
.LLSDACSB2469:
	.uleb128 .LEHB10-.LFB2469
	.uleb128 .LEHE10-.LEHB10
	.uleb128 .L41-.LFB2469
	.uleb128 0
.LLSDACSE2469:
	.text
	.cfi_endproc
	.section	.text.unlikely
	.cfi_startproc
	.cfi_personality 0x9b,DW.ref.__gxx_personality_v0
	.cfi_lsda 0x1b,.LLSDAC2469
	.type	_ZN6Logger11getInstanceEv.cold, @function
_ZN6Logger11getInstanceEv.cold:
.LFSB2469:
.L40:
	.cfi_def_cfa 6, 16
	.cfi_offset 6, -16
	.cfi_offset 12, -32
	.cfi_offset 13, -24
	.loc 1 43 46 discriminator 3 view .LVU166
	movq	%r13, %rdi
	vzeroupper
	call	__cxa_guard_abort@PLT
.LVL75:
	movq	%r12, %rdi
.LEHB11:
	call	_Unwind_Resume@PLT
.LVL76:
.LEHE11:
	.cfi_endproc
.LFE2469:
	.section	.gcc_except_table
.LLSDAC2469:
	.byte	0xff
	.byte	0xff
	.byte	0x1
	.uleb128 .LLSDACSEC2469-.LLSDACSBC2469
.LLSDACSBC2469:
	.uleb128 .LEHB11-.LCOLDB6
	.uleb128 .LEHE11-.LEHB11
	.uleb128 0
	.uleb128 0
.LLSDACSEC2469:
	.section	.text.unlikely
	.text
	.size	_ZN6Logger11getInstanceEv, .-_ZN6Logger11getInstanceEv
	.section	.text.unlikely
	.size	_ZN6Logger11getInstanceEv.cold, .-_ZN6Logger11getInstanceEv.cold
.LCOLDE6:
	.text
.LHOTE6:
	.align 2
	.p2align 4
	.globl	_ZN6Logger8getlevelEv
	.type	_ZN6Logger8getlevelEv, @function
_ZN6Logger8getlevelEv:
.LVL77:
.LFB2474:
	.loc 1 65 5 is_stmt 1 view -0
	.cfi_startproc
	.loc 1 65 5 is_stmt 0 view .LVU180
	endbr64
	.loc 1 65 7 is_stmt 1 view .LVU181
	.loc 1 65 14 is_stmt 0 view .LVU182
	movl	16(%rdi), %eax
	.loc 1 65 20 view .LVU183
	ret
	.cfi_endproc
.LFE2474:
	.size	_ZN6Logger8getlevelEv, .-_ZN6Logger8getlevelEv
	.align 2
	.p2align 4
	.globl	_ZN6Logger6getlogEv
	.type	_ZN6Logger6getlogEv, @function
_ZN6Logger6getlogEv:
.LVL78:
.LFB2475:
	.loc 1 68 5 is_stmt 1 view -0
	.cfi_startproc
	.loc 1 68 5 is_stmt 0 view .LVU185
	endbr64
	.loc 1 68 7 is_stmt 1 view .LVU186
	.loc 1 68 14 is_stmt 0 view .LVU187
	movq	8(%rdi), %rax
	.loc 1 68 22 view .LVU188
	ret
	.cfi_endproc
.LFE2475:
	.size	_ZN6Logger6getlogEv, .-_ZN6Logger6getlogEv
	.align 2
	.p2align 4
	.globl	_ZN6Logger9getindentEv
	.type	_ZN6Logger9getindentEv, @function
_ZN6Logger9getindentEv:
.LVL79:
.LFB2476:
	.loc 1 71 5 is_stmt 1 view -0
	.cfi_startproc
	.loc 1 71 5 is_stmt 0 view .LVU190
	endbr64
	.loc 1 71 7 is_stmt 1 view .LVU191
	.loc 1 71 14 is_stmt 0 view .LVU192
	movl	20(%rdi), %eax
	.loc 1 71 22 view .LVU193
	ret
	.cfi_endproc
.LFE2476:
	.size	_ZN6Logger9getindentEv, .-_ZN6Logger9getindentEv
	.align 2
	.p2align 4
	.globl	_ZN6Logger8setlevelEi
	.type	_ZN6Logger8setlevelEi, @function
_ZN6Logger8setlevelEi:
.LVL80:
.LFB2477:
	.loc 1 74 5 is_stmt 1 view -0
	.cfi_startproc
	.loc 1 74 5 is_stmt 0 view .LVU195
	endbr64
	.loc 1 75 5 is_stmt 1 view .LVU196
	testl	%esi, %esi
	js	.L54
	.loc 1 76 9 view .LVU197
	.loc 1 76 15 is_stmt 0 view .LVU198
	movl	%esi, 16(%rdi)
	movl	%esi, %eax
	.loc 1 78 5 is_stmt 1 view .LVU199
	.loc 1 79 5 is_stmt 0 view .LVU200
	ret
	.p2align 4,,10
	.p2align 3
.L54:
	.loc 1 78 12 view .LVU201
	movl	16(%rdi), %eax
	ret
	.cfi_endproc
.LFE2477:
	.size	_ZN6Logger8setlevelEi, .-_ZN6Logger8setlevelEi
	.align 2
	.p2align 4
	.globl	_ZN6Logger9setindentEi
	.type	_ZN6Logger9setindentEi, @function
_ZN6Logger9setindentEi:
.LVL81:
.LFB2478:
	.loc 1 82 5 is_stmt 1 view -0
	.cfi_startproc
	.loc 1 82 5 is_stmt 0 view .LVU203
	endbr64
	.loc 1 83 5 is_stmt 1 view .LVU204
	testl	%esi, %esi
	js	.L58
	.loc 1 84 9 view .LVU205
	.loc 1 84 16 is_stmt 0 view .LVU206
	movl	%esi, 20(%rdi)
	movl	%esi, %eax
	.loc 1 86 5 is_stmt 1 view .LVU207
	.loc 1 87 5 is_stmt 0 view .LVU208
	ret
	.p2align 4,,10
	.p2align 3
.L58:
	.loc 1 86 12 view .LVU209
	movl	20(%rdi), %eax
	ret
	.cfi_endproc
.LFE2478:
	.size	_ZN6Logger9setindentEi, .-_ZN6Logger9setindentEi
	.align 2
	.p2align 4
	.globl	_ZN6Logger3logEPKcz
	.type	_ZN6Logger3logEPKcz, @function
_ZN6Logger3logEPKcz:
.LVL82:
.LFB2479:
	.loc 1 92 5 is_stmt 1 view -0
	.cfi_startproc
	.loc 1 92 5 is_stmt 0 view .LVU211
	endbr64
	pushq	%rbp
	.cfi_def_cfa_offset 16
	.cfi_offset 6, -16
	movq	%rsp, %rbp
	.cfi_def_cfa_register 6
	pushq	%r12
	.cfi_offset 12, -24
	movq	%rsi, %r12
	pushq	%rbx
	.cfi_offset 3, -32
	movq	%rdi, %rbx
	subq	$208, %rsp
	movq	%rdx, -176(%rbp)
	movq	%rcx, -168(%rbp)
	movq	%r8, -160(%rbp)
	movq	%r9, -152(%rbp)
	testb	%al, %al
	je	.L62
	vmovaps	%xmm0, -144(%rbp)
	vmovaps	%xmm1, -128(%rbp)
	vmovaps	%xmm2, -112(%rbp)
	vmovaps	%xmm3, -96(%rbp)
	vmovaps	%xmm4, -80(%rbp)
	vmovaps	%xmm5, -64(%rbp)
	vmovaps	%xmm6, -48(%rbp)
	vmovaps	%xmm7, -32(%rbp)
.L62:
	.loc 1 93 5 is_stmt 1 view .LVU212
	movl	16(%rbx), %eax
	testl	%eax, %eax
	js	.L63
	.loc 1 96 5 view .LVU213
	.loc 1 97 4 view .LVU214
	.loc 1 99 16 is_stmt 0 view .LVU215
	movl	20(%rbx), %esi
.LVL83:
	.loc 1 99 16 view .LVU216
	movq	8(%rbx), %rdi
.LVL84:
	.loc 1 97 22 view .LVU217
	leaq	16(%rbp), %rax
	movl	$16, -216(%rbp)
	movq	%rax, -208(%rbp)
	leaq	-192(%rbp), %rax
	movl	$48, -212(%rbp)
	movq	%rax, -200(%rbp)
	.loc 1 99 5 is_stmt 1 view .LVU218
	.loc 1 99 16 is_stmt 0 view .LVU219
	call	_Z10fsetindentP8_IO_FILEi@PLT
.LVL85:
	.loc 1 100 5 is_stmt 1 view .LVU220
.LBB227:
.LBI227:
	.loc 3 132 1 view .LVU221
.LBB228:
	.loc 3 135 3 view .LVU222
	.loc 3 135 25 is_stmt 0 view .LVU223
	movq	8(%rbx), %rdi
	movq	%r12, %rdx
	leaq	-216(%rbp), %rcx
.LVL86:
	.loc 3 135 25 view .LVU224
	movl	$1, %esi
	call	__vfprintf_chk@PLT
.LVL87:
	.loc 3 135 25 view .LVU225
.LBE228:
.LBE227:
	.loc 1 102 5 is_stmt 1 view .LVU226
	.loc 1 104 4 view .LVU227
	.loc 1 106 5 view .LVU228
.L63:
	.loc 1 107 5 is_stmt 0 view .LVU229
	addq	$208, %rsp
	popq	%rbx
.LVL88:
	.loc 1 107 5 view .LVU230
	popq	%r12
.LVL89:
	.loc 1 107 5 view .LVU231
	popq	%rbp
	.cfi_def_cfa 7, 8
	ret
	.cfi_endproc
.LFE2479:
	.size	_ZN6Logger3logEPKcz, .-_ZN6Logger3logEPKcz
	.section	.rodata.str1.8
	.align 8
.LC7:
	.string	"*********************************************************************\n"
	.align 8
.LC8:
	.string	"\t\tLog Successfuly ended, on %s"
	.section	.rodata.str1.1
.LC9:
	.string	"\033[96mLog closed\n\033[0m"
	.text
	.align 2
	.p2align 4
	.globl	_ZN6LoggerD2Ev
	.type	_ZN6LoggerD2Ev, @function
_ZN6LoggerD2Ev:
.LVL90:
.LFB2471:
	.loc 1 48 1 is_stmt 1 view -0
	.cfi_startproc
	.cfi_personality 0x9b,DW.ref.__gxx_personality_v0
	.cfi_lsda 0x1b,.LLSDA2471
	.loc 1 48 1 is_stmt 0 view .LVU233
	endbr64
	pushq	%rbp
	.cfi_def_cfa_offset 16
	.cfi_offset 6, -16
	movq	%rsp, %rbp
	.cfi_def_cfa_register 6
	pushq	%r13
	.cfi_offset 13, -24
.LBB229:
.LBB230:
	.loc 1 52 8 view .LVU234
	leaq	.LC7(%rip), %r13
.LBE230:
.LBE229:
	.loc 1 48 1 view .LVU235
	pushq	%r12
	.cfi_offset 12, -32
	movq	%rsi, %r12
	pushq	%rbx
	.cfi_offset 3, -40
	movq	%rdi, %rbx
	subq	$24, %rsp
.LBB236:
	.loc 1 48 18 view .LVU236
	movq	(%rsi), %rax
	movq	%rax, (%rdi)
	movq	-24(%rax), %rax
	movq	24(%rsi), %rdx
	movq	%rdx, (%rdi,%rax)
.LBB233:
	.loc 1 50 5 is_stmt 1 view .LVU237
	.loc 1 50 30 is_stmt 0 view .LVU238
	xorl	%edi, %edi
.LVL91:
	.loc 1 50 30 view .LVU239
	call	time@PLT
.LVL92:
	.loc 1 52 8 view .LVU240
	movq	%r13, %rsi
	movq	%rbx, %rdi
	.loc 1 50 34 view .LVU241
	movq	%rax, -40(%rbp)
	.loc 1 52 5 is_stmt 1 view .LVU242
	.loc 1 52 8 is_stmt 0 view .LVU243
	xorl	%eax, %eax
	call	_ZN6Logger3logEPKcz
.LVL93:
	.loc 1 53 5 is_stmt 1 view .LVU244
	.loc 1 53 8 is_stmt 0 view .LVU245
	leaq	-40(%rbp), %rdi
	call	ctime@PLT
.LVL94:
	movq	%rbx, %rdi
	leaq	.LC8(%rip), %rsi
	movq	%rax, %rdx
	xorl	%eax, %eax
	call	_ZN6Logger3logEPKcz
.LVL95:
	.loc 1 54 5 is_stmt 1 view .LVU246
	.loc 1 54 8 is_stmt 0 view .LVU247
	movq	%r13, %rsi
	movq	%rbx, %rdi
	xorl	%eax, %eax
	call	_ZN6Logger3logEPKcz
.LVL96:
	.loc 1 56 5 is_stmt 1 view .LVU248
	.loc 1 56 11 is_stmt 0 view .LVU249
	movq	8(%rbx), %rdi
	call	fclose@PLT
.LVL97:
	.loc 1 57 5 is_stmt 1 view .LVU250
	.loc 1 57 12 is_stmt 0 view .LVU251
	movq	$0, 8(%rbx)
	.loc 1 59 5 is_stmt 1 view .LVU252
.LVL98:
.LBB231:
.LBI231:
	.loc 3 110 1 view .LVU253
.LBB232:
	.loc 3 112 3 view .LVU254
	.loc 3 112 23 is_stmt 0 view .LVU255
	leaq	.LC9(%rip), %rsi
	xorl	%eax, %eax
	movl	$1, %edi
	call	__printf_chk@PLT
.LVL99:
	.loc 3 112 23 view .LVU256
.LBE232:
.LBE231:
.LBE233:
.LBB234:
.LBI234:
	.loc 2 93 7 is_stmt 1 view .LVU257
.LBB235:
	.loc 2 93 26 is_stmt 0 view .LVU258
	movq	8(%r12), %rax
	movq	%rax, (%rbx)
	movq	-24(%rax), %rax
	movq	16(%r12), %rdx
	movq	%rdx, (%rbx,%rax)
.LVL100:
	.loc 2 93 26 view .LVU259
.LBE235:
.LBE234:
.LBE236:
	.loc 1 61 5 view .LVU260
	addq	$24, %rsp
	popq	%rbx
.LVL101:
	.loc 1 61 5 view .LVU261
	popq	%r12
.LVL102:
	.loc 1 61 5 view .LVU262
	popq	%r13
	popq	%rbp
	.cfi_def_cfa 7, 8
	ret
	.cfi_endproc
.LFE2471:
	.section	.gcc_except_table
.LLSDA2471:
	.byte	0xff
	.byte	0xff
	.byte	0x1
	.uleb128 .LLSDACSE2471-.LLSDACSB2471
.LLSDACSB2471:
.LLSDACSE2471:
	.text
	.size	_ZN6LoggerD2Ev, .-_ZN6LoggerD2Ev
	.align 2
	.p2align 4
	.globl	_ZN6LoggerD1Ev
	.type	_ZN6LoggerD1Ev, @function
_ZN6LoggerD1Ev:
.LVL103:
.LFB2472:
	.loc 1 48 1 is_stmt 1 view -0
	.cfi_startproc
	.cfi_personality 0x9b,DW.ref.__gxx_personality_v0
	.cfi_lsda 0x1b,.LLSDA2472
	.loc 1 48 1 is_stmt 0 view .LVU264
	endbr64
	pushq	%rbp
	.cfi_def_cfa_offset 16
	.cfi_offset 6, -16
.LBB237:
	.loc 1 48 18 view .LVU265
	leaq	24+_ZTV6Logger(%rip), %rax
.LBE237:
	.loc 1 48 1 view .LVU266
	movq	%rsp, %rbp
	.cfi_def_cfa_register 6
	pushq	%r12
	.cfi_offset 12, -24
.LBB252:
.LBB238:
	.loc 1 52 8 view .LVU267
	leaq	.LC7(%rip), %r12
.LBE238:
.LBE252:
	.loc 1 48 1 view .LVU268
	pushq	%rbx
	.cfi_offset 3, -32
	movq	%rdi, %rbx
	subq	$16, %rsp
.LBB253:
	.loc 1 48 18 view .LVU269
	movq	%rax, (%rdi)
	addq	$40, %rax
	movq	%rax, 32(%rdi)
.LBB241:
	.loc 1 50 5 is_stmt 1 view .LVU270
	.loc 1 50 30 is_stmt 0 view .LVU271
	xorl	%edi, %edi
.LVL104:
	.loc 1 50 30 view .LVU272
	call	time@PLT
.LVL105:
	.loc 1 52 8 view .LVU273
	movq	%r12, %rsi
	movq	%rbx, %rdi
	.loc 1 50 34 view .LVU274
	movq	%rax, -24(%rbp)
	.loc 1 52 5 is_stmt 1 view .LVU275
	.loc 1 52 8 is_stmt 0 view .LVU276
	xorl	%eax, %eax
	call	_ZN6Logger3logEPKcz
.LVL106:
	.loc 1 53 5 is_stmt 1 view .LVU277
	.loc 1 53 8 is_stmt 0 view .LVU278
	leaq	-24(%rbp), %rdi
	call	ctime@PLT
.LVL107:
	movq	%rbx, %rdi
	leaq	.LC8(%rip), %rsi
	movq	%rax, %rdx
	xorl	%eax, %eax
	call	_ZN6Logger3logEPKcz
.LVL108:
	.loc 1 54 5 is_stmt 1 view .LVU279
	.loc 1 54 8 is_stmt 0 view .LVU280
	movq	%r12, %rsi
	movq	%rbx, %rdi
	xorl	%eax, %eax
	call	_ZN6Logger3logEPKcz
.LVL109:
	.loc 1 56 5 is_stmt 1 view .LVU281
	.loc 1 56 11 is_stmt 0 view .LVU282
	movq	8(%rbx), %rdi
	call	fclose@PLT
.LVL110:
	.loc 1 57 5 is_stmt 1 view .LVU283
	.loc 1 57 12 is_stmt 0 view .LVU284
	movq	$0, 8(%rbx)
	.loc 1 59 5 is_stmt 1 view .LVU285
.LVL111:
.LBB239:
.LBI239:
	.loc 3 110 1 view .LVU286
.LBB240:
	.loc 3 112 3 view .LVU287
	.loc 3 112 23 is_stmt 0 view .LVU288
	movl	$1, %edi
	xorl	%eax, %eax
	leaq	.LC9(%rip), %rsi
	call	__printf_chk@PLT
.LVL112:
	.loc 3 112 23 view .LVU289
.LBE240:
.LBE239:
.LBE241:
.LBB242:
.LBI242:
	.loc 2 93 7 is_stmt 1 view .LVU290
.LBB243:
	.loc 2 93 26 is_stmt 0 view .LVU291
	leaq	24+_ZTC6Logger0_So(%rip), %rax
.LBE243:
.LBE242:
.LBB245:
.LBB246:
	.loc 4 282 22 view .LVU292
	leaq	32(%rbx), %rdi
.LBE246:
.LBE245:
.LBB249:
.LBB244:
	.loc 2 93 26 view .LVU293
	movq	%rax, (%rbx)
.LVL113:
	.loc 2 93 26 view .LVU294
.LBE244:
.LBE249:
.LBB250:
.LBI245:
	.loc 4 282 7 is_stmt 1 view .LVU295
.LBB247:
	.loc 4 282 22 is_stmt 0 view .LVU296
	leaq	16+_ZTVSt9basic_iosIcSt11char_traitsIcEE(%rip), %rax
	movq	%rax, 32(%rbx)
.LBE247:
.LBE250:
.LBE253:
	.loc 1 61 5 view .LVU297
	addq	$16, %rsp
	popq	%rbx
.LVL114:
	.loc 1 61 5 view .LVU298
	popq	%r12
	popq	%rbp
	.cfi_def_cfa 7, 8
.LBB254:
.LBB251:
.LBB248:
	.loc 4 282 22 view .LVU299
	jmp	_ZNSt8ios_baseD2Ev@PLT
.LVL115:
	.loc 4 282 22 view .LVU300
.LBE248:
.LBE251:
.LBE254:
	.cfi_endproc
.LFE2472:
	.section	.gcc_except_table
.LLSDA2472:
	.byte	0xff
	.byte	0xff
	.byte	0x1
	.uleb128 .LLSDACSE2472-.LLSDACSB2472
.LLSDACSB2472:
.LLSDACSE2472:
	.text
	.size	_ZN6LoggerD1Ev, .-_ZN6LoggerD1Ev
	.set	.LTHUNK0,_ZN6LoggerD1Ev
	.p2align 4
	.globl	_ZTv0_n24_N6LoggerD1Ev
	.type	_ZTv0_n24_N6LoggerD1Ev, @function
_ZTv0_n24_N6LoggerD1Ev:
.LFB3075:
	.file 5 "./ATC/Logger/Logger.h"
	.loc 5 26 9 is_stmt 1 view -0
	.cfi_startproc
	endbr64
	movq	(%rdi), %r10
	addq	-24(%r10), %rdi
	jmp	.LTHUNK0
	.cfi_endproc
.LFE3075:
	.size	_ZTv0_n24_N6LoggerD1Ev, .-_ZTv0_n24_N6LoggerD1Ev
	.align 2
	.p2align 4
	.globl	_ZN6LoggerD0Ev
	.type	_ZN6LoggerD0Ev, @function
_ZN6LoggerD0Ev:
.LVL116:
.LFB2473:
	.loc 1 48 1 view -0
	.cfi_startproc
	.loc 1 48 1 is_stmt 0 view .LVU303
	endbr64
	pushq	%rbp
	.cfi_def_cfa_offset 16
	.cfi_offset 6, -16
	movq	%rsp, %rbp
	.cfi_def_cfa_register 6
	pushq	%r12
	.cfi_offset 12, -24
	movq	%rdi, %r12
	subq	$8, %rsp
	.loc 1 61 5 view .LVU304
	call	_ZN6LoggerD1Ev
.LVL117:
	.loc 1 61 5 view .LVU305
	movq	%r12, %rdi
	movq	-8(%rbp), %r12
.LVL118:
	.loc 1 61 5 view .LVU306
	movl	$296, %esi
	leave
	.cfi_def_cfa 7, 8
	jmp	_ZdlPvm@PLT
.LVL119:
	.loc 1 61 5 view .LVU307
	.cfi_endproc
.LFE2473:
	.size	_ZN6LoggerD0Ev, .-_ZN6LoggerD0Ev
	.p2align 4
	.globl	_ZTv0_n24_N6LoggerD0Ev
	.type	_ZTv0_n24_N6LoggerD0Ev, @function
_ZTv0_n24_N6LoggerD0Ev:
.LFB3074:
	.cfi_startproc
	endbr64
	pushq	%rbp
	.cfi_def_cfa_offset 16
	.cfi_offset 6, -16
	movq	%rsp, %rbp
	.cfi_def_cfa_register 6
	pushq	%r12
	.cfi_offset 12, -24
	movq	%rdi, %r12
	subq	$8, %rsp
	movq	(%rdi), %rax
	addq	-24(%rax), %r12
	movq	%r12, %rdi
	call	_ZN6LoggerD1Ev
	movq	%r12, %rdi
	movq	-8(%rbp), %r12
	movl	$296, %esi
	leave
	.cfi_def_cfa 7, 8
	jmp	_ZdlPvm@PLT
	.cfi_endproc
.LFE3074:
	.size	_ZTv0_n24_N6LoggerD0Ev, .-_ZTv0_n24_N6LoggerD0Ev
	.align 2
	.p2align 4
	.globl	_ZN6Logger9log_nolvlEPKcz
	.type	_ZN6Logger9log_nolvlEPKcz, @function
_ZN6Logger9log_nolvlEPKcz:
.LVL120:
.LFB2480:
	.loc 1 110 5 is_stmt 1 view -0
	.cfi_startproc
	.loc 1 110 5 is_stmt 0 view .LVU309
	endbr64
	pushq	%rbp
	.cfi_def_cfa_offset 16
	.cfi_offset 6, -16
	movq	%rsp, %rbp
	.cfi_def_cfa_register 6
	pushq	%r12
	.cfi_offset 12, -24
	movq	%rsi, %r12
	pushq	%rbx
	.cfi_offset 3, -32
	movq	%rdi, %rbx
	subq	$208, %rsp
	movq	%rdx, -176(%rbp)
	movq	%rcx, -168(%rbp)
	movq	%r8, -160(%rbp)
	movq	%r9, -152(%rbp)
	testb	%al, %al
	je	.L75
	vmovaps	%xmm0, -144(%rbp)
	vmovaps	%xmm1, -128(%rbp)
	vmovaps	%xmm2, -112(%rbp)
	vmovaps	%xmm3, -96(%rbp)
	vmovaps	%xmm4, -80(%rbp)
	vmovaps	%xmm5, -64(%rbp)
	vmovaps	%xmm6, -48(%rbp)
	vmovaps	%xmm7, -32(%rbp)
.L75:
	.loc 1 111 5 is_stmt 1 view .LVU310
	.loc 1 112 4 view .LVU311
	.loc 1 114 16 is_stmt 0 view .LVU312
	movl	20(%rbx), %esi
.LVL121:
	.loc 1 114 16 view .LVU313
	movq	8(%rbx), %rdi
.LVL122:
	.loc 1 112 22 view .LVU314
	leaq	16(%rbp), %rax
	movl	$16, -216(%rbp)
	movq	%rax, -208(%rbp)
	leaq	-192(%rbp), %rax
	movq	%rax, -200(%rbp)
	.loc 1 114 5 is_stmt 1 view .LVU315
	.loc 1 112 22 is_stmt 0 view .LVU316
	movl	$48, -212(%rbp)
	.loc 1 114 16 view .LVU317
	call	_Z10fsetindentP8_IO_FILEi@PLT
.LVL123:
	.loc 1 115 5 is_stmt 1 view .LVU318
.LBB255:
.LBI255:
	.loc 3 132 1 view .LVU319
.LBB256:
	.loc 3 135 3 view .LVU320
	.loc 3 135 25 is_stmt 0 view .LVU321
	movq	8(%rbx), %rdi
	movq	%r12, %rdx
	leaq	-216(%rbp), %rcx
.LVL124:
	.loc 3 135 25 view .LVU322
	movl	$1, %esi
	call	__vfprintf_chk@PLT
.LVL125:
	.loc 3 135 25 view .LVU323
.LBE256:
.LBE255:
	.loc 1 117 5 is_stmt 1 view .LVU324
	.loc 1 119 4 view .LVU325
	.loc 1 121 5 view .LVU326
	.loc 1 122 5 is_stmt 0 view .LVU327
	addq	$208, %rsp
	popq	%rbx
.LVL126:
	.loc 1 122 5 view .LVU328
	popq	%r12
.LVL127:
	.loc 1 122 5 view .LVU329
	popq	%rbp
	.cfi_def_cfa 7, 8
	ret
	.cfi_endproc
.LFE2480:
	.size	_ZN6Logger9log_nolvlEPKcz, .-_ZN6Logger9log_nolvlEPKcz
	.align 2
	.p2align 4
	.globl	_ZN6Logger13log_no_indentEPKcz
	.type	_ZN6Logger13log_no_indentEPKcz, @function
_ZN6Logger13log_no_indentEPKcz:
.LVL128:
.LFB2481:
	.loc 1 125 5 is_stmt 1 view -0
	.cfi_startproc
	.loc 1 125 5 is_stmt 0 view .LVU331
	endbr64
	pushq	%rbp
	.cfi_def_cfa_offset 16
	.cfi_offset 6, -16
	movq	%rsp, %rbp
	.cfi_def_cfa_register 6
	subq	$208, %rsp
	movq	%rdx, -160(%rbp)
	movq	%rcx, -152(%rbp)
	movq	%r8, -144(%rbp)
	movq	%r9, -136(%rbp)
	testb	%al, %al
	je	.L80
	vmovaps	%xmm0, -128(%rbp)
	vmovaps	%xmm1, -112(%rbp)
	vmovaps	%xmm2, -96(%rbp)
	vmovaps	%xmm3, -80(%rbp)
	vmovaps	%xmm4, -64(%rbp)
	vmovaps	%xmm5, -48(%rbp)
	vmovaps	%xmm6, -32(%rbp)
	vmovaps	%xmm7, -16(%rbp)
.L80:
	.loc 1 126 5 is_stmt 1 view .LVU332
	movl	16(%rdi), %eax
	testl	%eax, %eax
	js	.L81
	.loc 1 129 5 view .LVU333
	.loc 1 130 4 view .LVU334
	.loc 1 130 22 is_stmt 0 view .LVU335
	leaq	16(%rbp), %rax
.LBB257:
.LBB258:
	.loc 3 135 25 view .LVU336
	movq	8(%rdi), %rdi
.LVL129:
	.loc 3 135 25 view .LVU337
	movq	%rsi, %rdx
	leaq	-200(%rbp), %rcx
.LBE258:
.LBE257:
	.loc 1 130 22 view .LVU338
	movq	%rax, -192(%rbp)
.LBB261:
.LBB259:
	.loc 3 135 25 view .LVU339
	movl	$1, %esi
.LVL130:
	.loc 3 135 25 view .LVU340
.LBE259:
.LBE261:
	.loc 1 130 22 view .LVU341
	leaq	-176(%rbp), %rax
	movl	$16, -200(%rbp)
	movl	$48, -196(%rbp)
	movq	%rax, -184(%rbp)
	.loc 1 133 5 is_stmt 1 view .LVU342
.LVL131:
.LBB262:
.LBI257:
	.loc 3 132 1 view .LVU343
.LBB260:
	.loc 3 135 3 view .LVU344
	.loc 3 135 25 is_stmt 0 view .LVU345
	call	__vfprintf_chk@PLT
.LVL132:
	.loc 3 135 25 view .LVU346
.LBE260:
.LBE262:
	.loc 1 135 5 is_stmt 1 view .LVU347
	.loc 1 137 4 view .LVU348
	.loc 1 139 5 view .LVU349
.L81:
	.loc 1 140 5 is_stmt 0 view .LVU350
	leave
	.cfi_def_cfa 7, 8
	ret
	.cfi_endproc
.LFE2481:
	.size	_ZN6Logger13log_no_indentEPKcz, .-_ZN6Logger13log_no_indentEPKcz
	.align 2
	.p2align 4
	.globl	_ZN6Logger15log_dup_consoleEPKcz
	.type	_ZN6Logger15log_dup_consoleEPKcz, @function
_ZN6Logger15log_dup_consoleEPKcz:
.LVL133:
.LFB2482:
	.loc 1 143 5 is_stmt 1 view -0
	.cfi_startproc
	.loc 1 143 5 is_stmt 0 view .LVU352
	endbr64
	pushq	%rbp
	.cfi_def_cfa_offset 16
	.cfi_offset 6, -16
	movq	%rsp, %rbp
	.cfi_def_cfa_register 6
	pushq	%r12
	.cfi_offset 12, -24
	movq	%rsi, %r12
	subq	$232, %rsp
	movq	%rdx, -176(%rbp)
	movq	%rcx, -168(%rbp)
	movq	%r8, -160(%rbp)
	movq	%r9, -152(%rbp)
	testb	%al, %al
	je	.L85
	vmovaps	%xmm0, -144(%rbp)
	vmovaps	%xmm1, -128(%rbp)
	vmovaps	%xmm2, -112(%rbp)
	vmovaps	%xmm3, -96(%rbp)
	vmovaps	%xmm4, -80(%rbp)
	vmovaps	%xmm5, -64(%rbp)
	vmovaps	%xmm6, -48(%rbp)
	vmovaps	%xmm7, -32(%rbp)
.L85:
	.loc 1 145 5 is_stmt 1 view .LVU353
	.loc 1 146 5 view .LVU354
	.loc 1 148 4 view .LVU355
	.loc 1 148 22 is_stmt 0 view .LVU356
	leaq	16(%rbp), %rax
.LBB263:
.LBB264:
	.loc 3 135 25 view .LVU357
	movq	8(%rdi), %rdi
.LVL134:
	.loc 3 135 25 view .LVU358
	movq	%r12, %rdx
	movl	$1, %esi
.LVL135:
	.loc 3 135 25 view .LVU359
.LBE264:
.LBE263:
	.loc 1 148 22 view .LVU360
	movq	%rax, -232(%rbp)
	leaq	-192(%rbp), %rax
.LBB267:
.LBB265:
	.loc 3 135 25 view .LVU361
	leaq	-240(%rbp), %rcx
.LBE265:
.LBE267:
	.loc 1 148 22 view .LVU362
	movq	%rax, -224(%rbp)
	.loc 1 149 4 is_stmt 1 view .LVU363
	.loc 1 149 22 is_stmt 0 view .LVU364
	leaq	16(%rbp), %rax
	movq	%rax, -208(%rbp)
	leaq	-192(%rbp), %rax
	.loc 1 148 22 view .LVU365
	movl	$16, -240(%rbp)
	movl	$48, -236(%rbp)
	.loc 1 149 22 view .LVU366
	movl	$16, -216(%rbp)
	movl	$48, -212(%rbp)
	movq	%rax, -200(%rbp)
	.loc 1 151 5 is_stmt 1 view .LVU367
.LVL136:
.LBB268:
.LBI263:
	.loc 3 132 1 view .LVU368
.LBB266:
	.loc 3 135 3 view .LVU369
	.loc 3 135 25 is_stmt 0 view .LVU370
	call	__vfprintf_chk@PLT
.LVL137:
	.loc 3 135 25 view .LVU371
.LBE266:
.LBE268:
	.loc 1 152 6 is_stmt 1 view .LVU372
.LBB269:
.LBI269:
	.loc 3 122 1 view .LVU373
.LBB270:
	.loc 3 125 3 view .LVU374
	.loc 3 125 25 is_stmt 0 view .LVU375
	movq	stdout(%rip), %rdi
	movq	%r12, %rdx
	leaq	-216(%rbp), %rcx
.LVL138:
	.loc 3 125 25 view .LVU376
	movl	$1, %esi
	call	__vfprintf_chk@PLT
.LVL139:
	.loc 3 125 25 view .LVU377
.LBE270:
.LBE269:
	.loc 1 154 4 is_stmt 1 view .LVU378
	.loc 1 155 4 view .LVU379
	.loc 1 157 5 view .LVU380
	.loc 1 158 5 is_stmt 0 view .LVU381
	movq	-8(%rbp), %r12
.LVL140:
	.loc 1 158 5 view .LVU382
	leave
	.cfi_def_cfa 7, 8
	ret
	.cfi_endproc
.LFE2482:
	.size	_ZN6Logger15log_dup_consoleEPKcz, .-_ZN6Logger15log_dup_consoleEPKcz
	.align 2
	.p2align 4
	.globl	_ZN6Logger6logmsgEPc
	.type	_ZN6Logger6logmsgEPc, @function
_ZN6Logger6logmsgEPc:
.LVL141:
.LFB2483:
	.loc 1 161 5 is_stmt 1 view -0
	.cfi_startproc
	.loc 1 161 5 is_stmt 0 view .LVU384
	endbr64
	.loc 1 162 4 is_stmt 1 view .LVU385
	.loc 1 164 5 view .LVU386
.LVL142:
.LBB271:
.LBI271:
	.loc 3 103 1 view .LVU387
.LBB272:
	.loc 3 105 3 view .LVU388
	.loc 3 105 24 is_stmt 0 view .LVU389
	movq	8(%rdi), %rdi
.LVL143:
	.loc 3 105 24 view .LVU390
.LBE272:
.LBE271:
	.loc 1 161 5 view .LVU391
	movq	%rsi, %rcx
.LBB274:
.LBB273:
	.loc 3 105 24 view .LVU392
	leaq	.LC3(%rip), %rdx
	xorl	%eax, %eax
	movl	$1, %esi
.LVL144:
	.loc 3 105 24 view .LVU393
	jmp	__fprintf_chk@PLT
.LVL145:
	.loc 3 105 24 view .LVU394
.LBE273:
.LBE274:
	.cfi_endproc
.LFE2483:
	.size	_ZN6Logger6logmsgEPc, .-_ZN6Logger6logmsgEPc
	.section	.rodata.str1.8
	.align 8
.LC10:
	.string	"LOG CALLOC:     {%p} = calloc (%zu, %zu = %zu) from %s:%d, at %s:%d\n"
	.align 8
.LC11:
	.string	"LOG CALLOC: Couldn't allocate memory\n"
	.align 8
.LC12:
	.string	"LOG CALLOC: Couldn't allocate memory of size %zu (%zu*%zu) at %s:%d, %s:%d\n"
	.text
	.align 2
	.p2align 4
	.globl	_ZN6Logger7CAL_LOGEmmPKcS1_i
	.type	_ZN6Logger7CAL_LOGEmmPKcS1_i, @function
_ZN6Logger7CAL_LOGEmmPKcS1_i:
.LVL146:
.LFB2484:
	.loc 1 170 5 is_stmt 1 view -0
	.cfi_startproc
	.loc 1 170 5 is_stmt 0 view .LVU396
	endbr64
	.loc 1 171 5 is_stmt 1 view .LVU397
	.loc 1 170 5 is_stmt 0 view .LVU398
	pushq	%rbp
	.cfi_def_cfa_offset 16
	.cfi_offset 6, -16
	movq	%rsp, %rbp
	.cfi_def_cfa_register 6
	pushq	%r15
	pushq	%r14
	pushq	%r13
	.cfi_offset 15, -24
	.cfi_offset 14, -32
	.cfi_offset 13, -40
	movl	%r9d, %r13d
	pushq	%r12
	.cfi_offset 12, -48
	movq	%rsi, %r12
	.loc 1 171 24 view .LVU399
	movq	%rdx, %rsi
.LVL147:
	.loc 1 170 5 view .LVU400
	pushq	%rbx
	.loc 1 171 24 view .LVU401
	movq	%r12, %rdi
.LVL148:
	.cfi_offset 3, -56
	.loc 1 170 5 view .LVU402
	movq	%rdx, %rbx
	.loc 1 173 37 view .LVU403
	movq	%r12, %r14
	imulq	%rbx, %r14
	.loc 1 170 5 view .LVU404
	subq	$24, %rsp
	.loc 1 170 5 view .LVU405
	movq	%rcx, -56(%rbp)
	movq	%r8, -64(%rbp)
	.loc 1 171 24 view .LVU406
	call	calloc@PLT
.LVL149:
	.loc 1 171 24 view .LVU407
	movq	%rax, %r15
.LVL150:
	.loc 1 173 5 is_stmt 1 view .LVU408
	.loc 1 173 24 is_stmt 0 view .LVU409
	call	_ZN6Logger11getInstanceEv
.LVL151:
	.loc 1 173 37 view .LVU410
	pushq	%r13
	movq	%r14, %r9
	movq	%rbx, %r8
	pushq	-56(%rbp)
	.loc 1 173 24 view .LVU411
	movq	%rax, %rdi
	.loc 1 173 37 view .LVU412
	movq	%r12, %rcx
	movq	%r15, %rdx
	pushq	%r13
	leaq	.LC10(%rip), %rsi
	xorl	%eax, %eax
	pushq	-64(%rbp)
	call	_ZN6Logger9log_nolvlEPKcz
.LVL152:
	.loc 1 176 5 is_stmt 1 view .LVU413
	addq	$32, %rsp
	testq	%r15, %r15
	je	.L91
.L88:
	.loc 1 184 5 is_stmt 0 view .LVU414
	leaq	-40(%rbp), %rsp
	movq	%r15, %rax
	popq	%rbx
.LVL153:
	.loc 1 184 5 view .LVU415
	popq	%r12
.LVL154:
	.loc 1 184 5 view .LVU416
	popq	%r13
.LVL155:
	.loc 1 184 5 view .LVU417
	popq	%r14
	popq	%r15
.LVL156:
	.loc 1 184 5 view .LVU418
	popq	%rbp
	.cfi_remember_state
	.cfi_def_cfa 7, 8
.LVL157:
	.loc 1 184 5 view .LVU419
	ret
.LVL158:
.L91:
	.cfi_restore_state
	.loc 1 178 9 is_stmt 1 view .LVU420
	.loc 1 178 28 is_stmt 0 view .LVU421
	call	_ZN6Logger11getInstanceEv
.LVL159:
	.loc 1 178 40 view .LVU422
	leaq	.LC11(%rip), %rsi
	.loc 1 178 28 view .LVU423
	movq	%rax, %rdi
	.loc 1 178 40 view .LVU424
	xorl	%eax, %eax
	call	_ZN6Logger9log_nolvlEPKcz
.LVL160:
	.loc 1 179 9 is_stmt 1 view .LVU425
.LBB275:
.LBI275:
	.loc 3 110 1 view .LVU426
.LBB276:
	.loc 3 112 3 view .LVU427
	.loc 3 112 23 is_stmt 0 view .LVU428
	movq	-64(%rbp), %r9
	movq	%rbx, %r8
	movq	%r12, %rcx
	pushq	%rax
	movq	%r14, %rdx
	leaq	.LC12(%rip), %rsi
	movl	$1, %edi
	pushq	%r13
	xorl	%eax, %eax
	pushq	-56(%rbp)
	pushq	%r13
	call	__printf_chk@PLT
.LVL161:
	.loc 3 112 62 view .LVU429
	addq	$32, %rsp
.LVL162:
	.loc 3 112 62 view .LVU430
.LBE276:
.LBE275:
	.loc 1 183 5 is_stmt 1 view .LVU431
	.loc 1 183 12 is_stmt 0 view .LVU432
	jmp	.L88
	.cfi_endproc
.LFE2484:
	.size	_ZN6Logger7CAL_LOGEmmPKcS1_i, .-_ZN6Logger7CAL_LOGEmmPKcS1_i
	.section	.rodata.str1.8
	.align 8
.LC13:
	.string	"LOG FREE (kill): Atempt to free null pointer from: %s:%d, at %s:%d\n"
	.align 8
.LC14:
	.string	"LOG FREE (kiLL): Atempt to free null pointer from: %s:%d, at %s:%d\n"
	.align 8
.LC15:
	.string	"LOG FREE(kill): {%p} - will be freed from %s:%d, at %s:%d\n"
	.text
	.align 2
	.p2align 4
	.globl	_ZN6Logger8FREE_LOGEPvPKcS2_i
	.type	_ZN6Logger8FREE_LOGEPvPKcS2_i, @function
_ZN6Logger8FREE_LOGEPvPKcS2_i:
.LVL163:
.LFB2485:
	.loc 1 187 5 is_stmt 1 view -0
	.cfi_startproc
	.loc 1 187 5 is_stmt 0 view .LVU434
	endbr64
	.loc 1 188 5 is_stmt 1 view .LVU435
	.loc 1 187 5 is_stmt 0 view .LVU436
	pushq	%rbp
	.cfi_def_cfa_offset 16
	.cfi_offset 6, -16
	movq	%rsp, %rbp
	.cfi_def_cfa_register 6
	pushq	%r14
	.cfi_offset 14, -24
	movq	%rcx, %r14
	pushq	%r13
	.cfi_offset 13, -32
	movl	%r8d, %r13d
	pushq	%r12
	pushq	%rbx
	.cfi_offset 12, -40
	.cfi_offset 3, -48
	.loc 1 187 5 view .LVU437
	movq	%rdx, %rbx
	.loc 1 188 5 view .LVU438
	testq	%rsi, %rsi
	je	.L95
	movq	%rsi, %r12
	.loc 1 196 5 is_stmt 1 view .LVU439
	.loc 1 196 24 is_stmt 0 view .LVU440
	call	_ZN6Logger11getInstanceEv
.LVL164:
	.loc 1 196 36 view .LVU441
	subq	$8, %rsp
	movq	%r12, %rdx
	movq	%rbx, %r9
	pushq	%r13
	.loc 1 196 24 view .LVU442
	movq	%rax, %rdi
	.loc 1 196 36 view .LVU443
	movl	%r13d, %r8d
	movq	%r14, %rcx
	xorl	%eax, %eax
	leaq	.LC15(%rip), %rsi
	call	_ZN6Logger9log_nolvlEPKcz
.LVL165:
	.loc 1 198 5 is_stmt 1 view .LVU444
	.loc 1 198 9 is_stmt 0 view .LVU445
	popq	%rax
	popq	%rdx
	.loc 1 201 5 view .LVU446
	leaq	-32(%rbp), %rsp
	popq	%rbx
.LVL166:
	.loc 1 198 9 view .LVU447
	movq	%r12, %rdi
	.loc 1 201 5 view .LVU448
	popq	%r12
.LVL167:
	.loc 1 201 5 view .LVU449
	popq	%r13
.LVL168:
	.loc 1 201 5 view .LVU450
	popq	%r14
.LVL169:
	.loc 1 201 5 view .LVU451
	popq	%rbp
	.cfi_remember_state
	.cfi_def_cfa 7, 8
	.loc 1 198 9 view .LVU452
	jmp	free@PLT
.LVL170:
	.p2align 4,,10
	.p2align 3
.L95:
	.cfi_restore_state
	.loc 1 190 9 is_stmt 1 view .LVU453
	.loc 1 190 28 is_stmt 0 view .LVU454
	call	_ZN6Logger11getInstanceEv
.LVL171:
	.loc 1 190 40 view .LVU455
	movl	%r13d, %r9d
	movq	%rbx, %r8
	movl	%r13d, %ecx
	.loc 1 190 28 view .LVU456
	movq	%rax, %rdi
	.loc 1 190 40 view .LVU457
	movq	%r14, %rdx
	leaq	.LC13(%rip), %rsi
	xorl	%eax, %eax
	call	_ZN6Logger9log_nolvlEPKcz
.LVL172:
	.loc 1 191 34 is_stmt 1 view .LVU458
.LBB277:
.LBI277:
	.loc 3 110 1 view .LVU459
.LBB278:
	.loc 3 112 3 view .LVU460
.LBE278:
.LBE277:
	.loc 1 201 5 is_stmt 0 view .LVU461
	leaq	-32(%rbp), %rsp
.LBB285:
.LBB279:
	.loc 3 112 23 view .LVU462
	movl	%r13d, %r9d
	movq	%rbx, %r8
	movl	%r13d, %ecx
.LBE279:
.LBE285:
	.loc 1 201 5 view .LVU463
	popq	%rbx
.LVL173:
.LBB286:
.LBB280:
	.loc 3 112 23 view .LVU464
	movq	%r14, %rdx
.LBE280:
.LBE286:
	.loc 1 201 5 view .LVU465
	popq	%r12
.LBB287:
.LBB281:
	.loc 3 112 23 view .LVU466
	leaq	.LC14(%rip), %rsi
.LBE281:
.LBE287:
	.loc 1 201 5 view .LVU467
	popq	%r13
.LVL174:
.LBB288:
.LBB282:
	.loc 3 112 23 view .LVU468
	movl	$1, %edi
.LBE282:
.LBE288:
	.loc 1 201 5 view .LVU469
	popq	%r14
.LVL175:
.LBB289:
.LBB283:
	.loc 3 112 23 view .LVU470
	xorl	%eax, %eax
.LBE283:
.LBE289:
	.loc 1 201 5 view .LVU471
	popq	%rbp
	.cfi_def_cfa 7, 8
.LBB290:
.LBB284:
	.loc 3 112 23 view .LVU472
	jmp	__printf_chk@PLT
.LVL176:
	.loc 3 112 23 view .LVU473
.LBE284:
.LBE290:
	.cfi_endproc
.LFE2485:
	.size	_ZN6Logger8FREE_LOGEPvPKcS2_i, .-_ZN6Logger8FREE_LOGEPvPKcS2_i
	.section	.rodata.str1.8
	.align 8
.LC16:
	.string	"Null pointer from RECALLOC from: %s:%d, at %s:%d\n"
	.align 8
.LC17:
	.string	"Ebat, you are trying to REACALLOG of 0 size\n"
	.align 8
.LC18:
	.string	"Null bloc size at %p, from %s:%d, at %s:%d\n"
	.align 8
.LC19:
	.string	"LOG REALLOC:     {%p} -> {%p} = realloc (new size %zu, old size %zu) from %s:%d, at %s:%d\n"
	.align 8
.LC20:
	.string	"LOG REALLOC: Couldn't allocate memory\n"
	.align 8
.LC21:
	.string	"LOG REALLOC: Couldn't allocate memory of size %zu for {%p} at %s:%d, %s:%d\n"
	.text
	.align 2
	.p2align 4
	.globl	_ZN6Logger9RECAL_LOGEPvmPKcS2_i
	.type	_ZN6Logger9RECAL_LOGEPvmPKcS2_i, @function
_ZN6Logger9RECAL_LOGEPvmPKcS2_i:
.LVL177:
.LFB2486:
	.loc 1 205 5 is_stmt 1 view -0
	.cfi_startproc
	.loc 1 205 5 is_stmt 0 view .LVU475
	endbr64
	.loc 1 206 5 is_stmt 1 view .LVU476
	.loc 1 205 5 is_stmt 0 view .LVU477
	pushq	%rbp
	.cfi_def_cfa_offset 16
	.cfi_offset 6, -16
	movq	%rsp, %rbp
	.cfi_def_cfa_register 6
	pushq	%r15
	pushq	%r14
	pushq	%r13
	.cfi_offset 15, -24
	.cfi_offset 14, -32
	.cfi_offset 13, -40
	movl	%r9d, %r13d
	pushq	%r12
	pushq	%rbx
	subq	$24, %rsp
	.cfi_offset 12, -48
	.cfi_offset 3, -56
	.loc 1 205 5 view .LVU478
	movq	%rcx, -56(%rbp)
	movq	%r8, -64(%rbp)
	.loc 1 206 5 view .LVU479
	testq	%rsi, %rsi
	je	.L103
	movq	%rdx, %rbx
	.loc 1 213 5 is_stmt 1 view .LVU480
	testq	%rdx, %rdx
	je	.L104
	.loc 1 220 42 is_stmt 0 view .LVU481
	movq	%rsi, %rdi
.LVL178:
	.loc 1 220 42 view .LVU482
	movq	%rsi, %r14
	.loc 1 220 5 is_stmt 1 view .LVU483
	.loc 1 220 42 is_stmt 0 view .LVU484
	call	malloc_usable_size@PLT
.LVL179:
	.loc 1 220 42 view .LVU485
	movq	%rax, %r12
.LVL180:
	.loc 1 221 5 is_stmt 1 view .LVU486
	testq	%rax, %rax
	je	.L105
	.loc 1 228 5 view .LVU487
	.loc 1 228 28 is_stmt 0 view .LVU488
	movq	%rbx, %rsi
	movq	%r14, %rdi
	call	realloc@PLT
.LVL181:
	.loc 1 228 28 view .LVU489
	movq	%rax, %r15
.LVL182:
	.loc 1 230 5 is_stmt 1 view .LVU490
	.loc 1 230 24 is_stmt 0 view .LVU491
	call	_ZN6Logger11getInstanceEv
.LVL183:
	.loc 1 230 37 view .LVU492
	pushq	%r13
	movq	%r12, %r9
	movq	%rbx, %r8
	pushq	-56(%rbp)
	.loc 1 230 24 view .LVU493
	movq	%rax, %rdi
	.loc 1 230 37 view .LVU494
	movq	%r15, %rcx
	movq	%r14, %rdx
	pushq	%r13
	leaq	.LC19(%rip), %rsi
	xorl	%eax, %eax
	pushq	-64(%rbp)
	call	_ZN6Logger9log_nolvlEPKcz
.LVL184:
	.loc 1 233 5 is_stmt 1 view .LVU495
	addq	$32, %rsp
	testq	%r15, %r15
	je	.L106
.L101:
	.loc 1 240 5 view .LVU496
	cmpq	%r12, %rbx
	ja	.L107
.LVL185:
.L96:
	.loc 1 244 5 is_stmt 0 view .LVU497
	leaq	-40(%rbp), %rsp
	movq	%r15, %rax
	popq	%rbx
	popq	%r12
	popq	%r13
.LVL186:
	.loc 1 244 5 view .LVU498
	popq	%r14
	popq	%r15
	popq	%rbp
	.cfi_remember_state
	.cfi_def_cfa 7, 8
.LVL187:
	.loc 1 244 5 view .LVU499
	ret
.LVL188:
	.p2align 4,,10
	.p2align 3
.L107:
	.cfi_restore_state
	.loc 1 241 9 is_stmt 1 view .LVU500
.LBB291:
.LBI291:
	.file 6 "/usr/include/x86_64-linux-gnu/bits/string_fortified.h"
	.loc 6 57 28 view .LVU501
.LBB292:
	.loc 6 59 3 view .LVU502
.LBE292:
.LBE291:
	.loc 1 241 15 is_stmt 0 view .LVU503
	subq	%r12, %rbx
.LVL189:
	.loc 1 241 15 view .LVU504
	leaq	(%r15,%r12), %rdi
.LVL190:
.LBB295:
.LBB293:
	.loc 6 59 33 view .LVU505
	xorl	%esi, %esi
.LBE293:
.LBE295:
	.loc 1 241 15 view .LVU506
	movq	%rbx, %rdx
.LBB296:
.LBB294:
	.loc 6 59 33 view .LVU507
	call	memset@PLT
.LVL191:
	.loc 6 60 39 view .LVU508
	jmp	.L96
.LVL192:
	.p2align 4,,10
	.p2align 3
.L104:
	.loc 6 60 39 view .LVU509
.LBE294:
.LBE296:
	.loc 1 215 9 is_stmt 1 view .LVU510
	.loc 1 215 28 is_stmt 0 view .LVU511
	call	_ZN6Logger11getInstanceEv
.LVL193:
	.loc 1 215 46 view .LVU512
	leaq	.LC17(%rip), %rsi
	.loc 1 217 15 view .LVU513
	xorl	%r15d, %r15d
	.loc 1 215 28 view .LVU514
	movq	%rax, %rdi
	.loc 1 215 46 view .LVU515
	xorl	%eax, %eax
	call	_ZN6Logger15log_dup_consoleEPKcz
.LVL194:
	.loc 1 217 9 is_stmt 1 view .LVU516
	.loc 1 217 15 is_stmt 0 view .LVU517
	jmp	.L96
.LVL195:
	.p2align 4,,10
	.p2align 3
.L105:
	.loc 1 223 9 is_stmt 1 view .LVU518
	.loc 1 223 28 is_stmt 0 view .LVU519
	call	_ZN6Logger11getInstanceEv
.LVL196:
	.loc 1 223 40 view .LVU520
	subq	$8, %rsp
	movq	-64(%rbp), %rcx
	movl	%r13d, %r8d
	pushq	%r13
	movq	-56(%rbp), %r9
	.loc 1 223 28 view .LVU521
	movq	%rax, %rdi
	.loc 1 223 40 view .LVU522
	leaq	.LC18(%rip), %rsi
	movq	%r14, %rdx
	xorl	%eax, %eax
	.loc 1 225 15 view .LVU523
	xorl	%r15d, %r15d
	.loc 1 223 40 view .LVU524
	call	_ZN6Logger9log_nolvlEPKcz
.LVL197:
	.loc 1 225 9 is_stmt 1 view .LVU525
	.loc 1 225 15 is_stmt 0 view .LVU526
	popq	%rcx
	popq	%rsi
	jmp	.L96
.LVL198:
	.p2align 4,,10
	.p2align 3
.L103:
	.loc 1 208 9 is_stmt 1 view .LVU527
	.loc 1 208 28 is_stmt 0 view .LVU528
	call	_ZN6Logger11getInstanceEv
.LVL199:
	.loc 1 208 40 view .LVU529
	movq	-56(%rbp), %r8
	movq	-64(%rbp), %rdx
	movl	%r13d, %r9d
	.loc 1 208 28 view .LVU530
	movq	%rax, %rdi
	.loc 1 208 40 view .LVU531
	movl	%r13d, %ecx
	leaq	.LC16(%rip), %rsi
	xorl	%eax, %eax
	call	_ZN6Logger9log_nolvlEPKcz
.LVL200:
	.loc 1 210 9 is_stmt 1 view .LVU532
	.loc 1 210 15 is_stmt 0 view .LVU533
	xorl	%r15d, %r15d
	jmp	.L96
.LVL201:
.L106:
	.loc 1 235 9 is_stmt 1 view .LVU534
	.loc 1 235 28 is_stmt 0 view .LVU535
	call	_ZN6Logger11getInstanceEv
.LVL202:
	.loc 1 235 40 view .LVU536
	leaq	.LC20(%rip), %rsi
	.loc 1 235 28 view .LVU537
	movq	%rax, %rdi
	.loc 1 235 40 view .LVU538
	xorl	%eax, %eax
	call	_ZN6Logger9log_nolvlEPKcz
.LVL203:
	.loc 1 236 9 is_stmt 1 view .LVU539
.LBB297:
.LBI297:
	.loc 3 110 1 view .LVU540
.LBB298:
	.loc 3 112 3 view .LVU541
	.loc 3 112 23 is_stmt 0 view .LVU542
	pushq	%r13
	movq	-64(%rbp), %r8
	movq	%rbx, %rdx
	pushq	-56(%rbp)
	movl	%r13d, %r9d
	movq	%r14, %rcx
	leaq	.LC21(%rip), %rsi
	movl	$1, %edi
	xorl	%eax, %eax
	call	__printf_chk@PLT
.LVL204:
	.loc 3 112 62 view .LVU543
	popq	%rax
	popq	%rdx
	jmp	.L101
.LBE298:
.LBE297:
	.cfi_endproc
.LFE2486:
	.size	_ZN6Logger9RECAL_LOGEPvmPKcS2_i, .-_ZN6Logger9RECAL_LOGEPvmPKcS2_i
	.section	.rodata.str1.1
.LC22:
	.string	"\n"
.LC23:
	.string	"(return %d;)"
	.text
	.align 2
	.p2align 4
	.globl	_ZN6Logger9LogMsgRetEiPKcz
	.type	_ZN6Logger9LogMsgRetEiPKcz, @function
_ZN6Logger9LogMsgRetEiPKcz:
.LVL205:
.LFB2487:
	.loc 1 248 5 is_stmt 1 view -0
	.cfi_startproc
	.loc 1 248 5 is_stmt 0 view .LVU545
	endbr64
	pushq	%rbp
	.cfi_def_cfa_offset 16
	.cfi_offset 6, -16
	movq	%rsp, %rbp
	.cfi_def_cfa_register 6
	pushq	%r14
	pushq	%r13
	.cfi_offset 14, -24
	.cfi_offset 13, -32
	movq	%rdx, %r13
	pushq	%r12
	.cfi_offset 12, -40
	movl	%esi, %r12d
	pushq	%rbx
	.cfi_offset 3, -48
	movq	%rdi, %rbx
	subq	$208, %rsp
	movq	%rcx, -184(%rbp)
	movq	%r8, -176(%rbp)
	movq	%r9, -168(%rbp)
	testb	%al, %al
	je	.L110
	vmovaps	%xmm0, -160(%rbp)
	vmovaps	%xmm1, -144(%rbp)
	vmovaps	%xmm2, -128(%rbp)
	vmovaps	%xmm3, -112(%rbp)
	vmovaps	%xmm4, -96(%rbp)
	vmovaps	%xmm5, -80(%rbp)
	vmovaps	%xmm6, -64(%rbp)
	vmovaps	%xmm7, -48(%rbp)
.L110:
	.loc 1 255 5 is_stmt 1 view .LVU546
	.loc 1 256 4 view .LVU547
	.loc 1 256 22 is_stmt 0 view .LVU548
	leaq	16(%rbp), %rax
.LBB299:
.LBB300:
	.loc 3 105 24 view .LVU549
	movq	8(%rbx), %rdi
.LVL206:
	.loc 3 105 24 view .LVU550
	movl	$1, %esi
.LVL207:
	.loc 3 105 24 view .LVU551
	leaq	.LC22(%rip), %r14
.LBE300:
.LBE299:
	.loc 1 256 22 view .LVU552
	movq	%rax, -224(%rbp)
.LBB304:
.LBB301:
	.loc 3 105 24 view .LVU553
	movq	%r14, %rdx
.LVL208:
	.loc 3 105 24 view .LVU554
.LBE301:
.LBE304:
	.loc 1 256 22 view .LVU555
	leaq	-208(%rbp), %rax
	movq	%rax, -216(%rbp)
	.loc 1 258 5 is_stmt 1 view .LVU556
.LVL209:
.LBB305:
.LBI299:
	.loc 3 103 1 view .LVU557
.LBB302:
	.loc 3 105 3 view .LVU558
	.loc 3 105 24 is_stmt 0 view .LVU559
	xorl	%eax, %eax
.LBE302:
.LBE305:
	.loc 1 256 22 view .LVU560
	movl	$24, -232(%rbp)
	movl	$48, -228(%rbp)
.LBB306:
.LBB303:
	.loc 3 105 24 view .LVU561
	call	__fprintf_chk@PLT
.LVL210:
	.loc 3 105 24 view .LVU562
.LBE303:
.LBE306:
	.loc 1 259 5 is_stmt 1 view .LVU563
	.loc 1 259 16 is_stmt 0 view .LVU564
	movl	20(%rbx), %esi
	movq	8(%rbx), %rdi
	call	_Z10fsetindentP8_IO_FILEi@PLT
.LVL211:
	.loc 1 261 5 is_stmt 1 view .LVU565
.LBB307:
.LBI307:
	.loc 3 132 1 view .LVU566
.LBB308:
	.loc 3 135 3 view .LVU567
	.loc 3 135 25 is_stmt 0 view .LVU568
	movq	8(%rbx), %rdi
	movq	%r13, %rdx
	leaq	-232(%rbp), %rcx
.LVL212:
	.loc 3 135 25 view .LVU569
	movl	$1, %esi
	call	__vfprintf_chk@PLT
.LVL213:
	.loc 3 135 25 view .LVU570
.LBE308:
.LBE307:
	.loc 1 262 5 is_stmt 1 view .LVU571
.LBB309:
.LBI309:
	.loc 3 103 1 view .LVU572
.LBB310:
	.loc 3 105 3 view .LVU573
	.loc 3 105 24 is_stmt 0 view .LVU574
	movq	8(%rbx), %rdi
	movl	%r12d, %ecx
	xorl	%eax, %eax
	leaq	.LC23(%rip), %rdx
	movl	$1, %esi
	call	__fprintf_chk@PLT
.LVL214:
	.loc 3 105 24 view .LVU575
.LBE310:
.LBE309:
	.loc 1 264 5 is_stmt 1 view .LVU576
.LBB311:
.LBI311:
	.loc 3 103 1 view .LVU577
.LBB312:
	.loc 3 105 3 view .LVU578
	.loc 3 105 24 is_stmt 0 view .LVU579
	movq	8(%rbx), %rdi
	movq	%r14, %rdx
	xorl	%eax, %eax
	movl	$1, %esi
	call	__fprintf_chk@PLT
.LVL215:
	.loc 3 105 24 view .LVU580
.LBE312:
.LBE311:
	.loc 1 266 5 is_stmt 1 view .LVU581
	.loc 1 268 4 view .LVU582
	.loc 1 270 5 view .LVU583
	.loc 1 271 5 is_stmt 0 view .LVU584
	addq	$208, %rsp
	movl	%r12d, %eax
	popq	%rbx
.LVL216:
	.loc 1 271 5 view .LVU585
	popq	%r12
.LVL217:
	.loc 1 271 5 view .LVU586
	popq	%r13
.LVL218:
	.loc 1 271 5 view .LVU587
	popq	%r14
	popq	%rbp
	.cfi_def_cfa 7, 8
	ret
	.cfi_endproc
.LFE2487:
	.size	_ZN6Logger9LogMsgRetEiPKcz, .-_ZN6Logger9LogMsgRetEiPKcz
	.section	.rodata.str1.1
.LC24:
	.string	"return; "
	.text
	.align 2
	.p2align 4
	.globl	_ZN6Logger11LogMsgNoRetEPKcz
	.type	_ZN6Logger11LogMsgNoRetEPKcz, @function
_ZN6Logger11LogMsgNoRetEPKcz:
.LVL219:
.LFB2488:
	.loc 1 274 5 is_stmt 1 view -0
	.cfi_startproc
	.loc 1 274 5 is_stmt 0 view .LVU589
	endbr64
	pushq	%rbp
	.cfi_def_cfa_offset 16
	.cfi_offset 6, -16
	movq	%rsp, %rbp
	.cfi_def_cfa_register 6
	pushq	%r13
	pushq	%r12
	.cfi_offset 13, -24
	.cfi_offset 12, -32
	movq	%rsi, %r12
	pushq	%rbx
	.cfi_offset 3, -40
	movq	%rdi, %rbx
	subq	$216, %rsp
	movq	%rdx, -192(%rbp)
	movq	%rcx, -184(%rbp)
	movq	%r8, -176(%rbp)
	movq	%r9, -168(%rbp)
	testb	%al, %al
	je	.L114
	vmovaps	%xmm0, -160(%rbp)
	vmovaps	%xmm1, -144(%rbp)
	vmovaps	%xmm2, -128(%rbp)
	vmovaps	%xmm3, -112(%rbp)
	vmovaps	%xmm4, -96(%rbp)
	vmovaps	%xmm5, -80(%rbp)
	vmovaps	%xmm6, -64(%rbp)
	vmovaps	%xmm7, -48(%rbp)
.L114:
	.loc 1 275 5 is_stmt 1 view .LVU590
	.loc 1 276 4 view .LVU591
	.loc 1 276 22 is_stmt 0 view .LVU592
	leaq	16(%rbp), %rax
.LBB313:
.LBB314:
	.loc 3 105 24 view .LVU593
	movq	8(%rbx), %rdi
.LVL220:
	.loc 3 105 24 view .LVU594
	movl	$1, %esi
.LVL221:
	.loc 3 105 24 view .LVU595
	leaq	.LC22(%rip), %r13
.LBE314:
.LBE313:
	.loc 1 276 22 view .LVU596
	movq	%rax, -224(%rbp)
.LBB318:
.LBB315:
	.loc 3 105 24 view .LVU597
	movq	%r13, %rdx
.LBE315:
.LBE318:
	.loc 1 276 22 view .LVU598
	leaq	-208(%rbp), %rax
	movq	%rax, -216(%rbp)
	.loc 1 278 5 is_stmt 1 view .LVU599
.LVL222:
.LBB319:
.LBI313:
	.loc 3 103 1 view .LVU600
.LBB316:
	.loc 3 105 3 view .LVU601
	.loc 3 105 24 is_stmt 0 view .LVU602
	xorl	%eax, %eax
.LBE316:
.LBE319:
	.loc 1 276 22 view .LVU603
	movl	$16, -232(%rbp)
	movl	$48, -228(%rbp)
.LBB320:
.LBB317:
	.loc 3 105 24 view .LVU604
	call	__fprintf_chk@PLT
.LVL223:
	.loc 3 105 24 view .LVU605
.LBE317:
.LBE320:
	.loc 1 279 5 is_stmt 1 view .LVU606
	.loc 1 279 16 is_stmt 0 view .LVU607
	movl	20(%rbx), %esi
	movq	8(%rbx), %rdi
	call	_Z10fsetindentP8_IO_FILEi@PLT
.LVL224:
	.loc 1 281 5 is_stmt 1 view .LVU608
.LBB321:
.LBI321:
	.loc 3 103 1 view .LVU609
.LBB322:
	.loc 3 105 3 view .LVU610
	.loc 3 105 24 is_stmt 0 view .LVU611
	movq	8(%rbx), %rdi
	movl	$1, %esi
	xorl	%eax, %eax
	leaq	.LC24(%rip), %rdx
	call	__fprintf_chk@PLT
.LVL225:
	.loc 3 105 24 view .LVU612
.LBE322:
.LBE321:
	.loc 1 282 5 is_stmt 1 view .LVU613
.LBB323:
.LBI323:
	.loc 3 132 1 view .LVU614
.LBB324:
	.loc 3 135 3 view .LVU615
	.loc 3 135 25 is_stmt 0 view .LVU616
	movq	8(%rbx), %rdi
	movq	%r12, %rdx
	leaq	-232(%rbp), %rcx
.LVL226:
	.loc 3 135 25 view .LVU617
	movl	$1, %esi
	call	__vfprintf_chk@PLT
.LVL227:
	.loc 3 135 25 view .LVU618
.LBE324:
.LBE323:
	.loc 1 283 5 is_stmt 1 view .LVU619
.LBB325:
.LBI325:
	.loc 3 103 1 view .LVU620
.LBB326:
	.loc 3 105 3 view .LVU621
	.loc 3 105 24 is_stmt 0 view .LVU622
	movq	8(%rbx), %rdi
	movq	%r13, %rdx
	xorl	%eax, %eax
	movl	$1, %esi
	call	__fprintf_chk@PLT
.LVL228:
	.loc 3 105 24 view .LVU623
.LBE326:
.LBE325:
	.loc 1 285 5 is_stmt 1 view .LVU624
	.loc 1 287 4 view .LVU625
	.loc 1 289 5 view .LVU626
	.loc 1 290 5 is_stmt 0 view .LVU627
	addq	$216, %rsp
	popq	%rbx
.LVL229:
	.loc 1 290 5 view .LVU628
	popq	%r12
.LVL230:
	.loc 1 290 5 view .LVU629
	popq	%r13
	popq	%rbp
	.cfi_def_cfa 7, 8
	ret
	.cfi_endproc
.LFE2488:
	.size	_ZN6Logger11LogMsgNoRetEPKcz, .-_ZN6Logger11LogMsgNoRetEPKcz
	.section	.rodata.str1.1
.LC25:
	.string	"return Null ptr;"
	.text
	.align 2
	.p2align 4
	.globl	_ZN6Logger13LogMsgNullRetEPKcz
	.type	_ZN6Logger13LogMsgNullRetEPKcz, @function
_ZN6Logger13LogMsgNullRetEPKcz:
.LVL231:
.LFB2489:
	.loc 1 293 5 is_stmt 1 view -0
	.cfi_startproc
	.loc 1 293 5 is_stmt 0 view .LVU631
	endbr64
	pushq	%rbp
	.cfi_def_cfa_offset 16
	.cfi_offset 6, -16
	movq	%rsp, %rbp
	.cfi_def_cfa_register 6
	pushq	%r13
	pushq	%r12
	.cfi_offset 13, -24
	.cfi_offset 12, -32
	movq	%rsi, %r12
	pushq	%rbx
	.cfi_offset 3, -40
	movq	%rdi, %rbx
	subq	$216, %rsp
	movq	%rdx, -192(%rbp)
	movq	%rcx, -184(%rbp)
	movq	%r8, -176(%rbp)
	movq	%r9, -168(%rbp)
	testb	%al, %al
	je	.L118
	vmovaps	%xmm0, -160(%rbp)
	vmovaps	%xmm1, -144(%rbp)
	vmovaps	%xmm2, -128(%rbp)
	vmovaps	%xmm3, -112(%rbp)
	vmovaps	%xmm4, -96(%rbp)
	vmovaps	%xmm5, -80(%rbp)
	vmovaps	%xmm6, -64(%rbp)
	vmovaps	%xmm7, -48(%rbp)
.L118:
	.loc 1 294 4 is_stmt 1 view .LVU632
	.loc 1 296 5 view .LVU633
	.loc 1 297 4 view .LVU634
	.loc 1 297 22 is_stmt 0 view .LVU635
	leaq	16(%rbp), %rax
.LBB327:
.LBB328:
	.loc 3 105 24 view .LVU636
	movq	8(%rbx), %rdi
.LVL232:
	.loc 3 105 24 view .LVU637
	movl	$1, %esi
.LVL233:
	.loc 3 105 24 view .LVU638
	leaq	.LC22(%rip), %r13
.LBE328:
.LBE327:
	.loc 1 297 22 view .LVU639
	movq	%rax, -224(%rbp)
.LBB332:
.LBB329:
	.loc 3 105 24 view .LVU640
	movq	%r13, %rdx
.LBE329:
.LBE332:
	.loc 1 297 22 view .LVU641
	leaq	-208(%rbp), %rax
	movq	%rax, -216(%rbp)
	.loc 1 299 5 is_stmt 1 view .LVU642
.LVL234:
.LBB333:
.LBI327:
	.loc 3 103 1 view .LVU643
.LBB330:
	.loc 3 105 3 view .LVU644
	.loc 3 105 24 is_stmt 0 view .LVU645
	xorl	%eax, %eax
.LBE330:
.LBE333:
	.loc 1 297 22 view .LVU646
	movl	$16, -232(%rbp)
	movl	$48, -228(%rbp)
.LBB334:
.LBB331:
	.loc 3 105 24 view .LVU647
	call	__fprintf_chk@PLT
.LVL235:
	.loc 3 105 24 view .LVU648
.LBE331:
.LBE334:
	.loc 1 300 5 is_stmt 1 view .LVU649
	.loc 1 300 16 is_stmt 0 view .LVU650
	movl	20(%rbx), %esi
	movq	8(%rbx), %rdi
	call	_Z10fsetindentP8_IO_FILEi@PLT
.LVL236:
	.loc 1 302 5 is_stmt 1 view .LVU651
.LBB335:
.LBI335:
	.loc 3 103 1 view .LVU652
.LBB336:
	.loc 3 105 3 view .LVU653
	.loc 3 105 24 is_stmt 0 view .LVU654
	movq	8(%rbx), %rdi
	movl	$1, %esi
	xorl	%eax, %eax
	leaq	.LC25(%rip), %rdx
	call	__fprintf_chk@PLT
.LVL237:
	.loc 3 105 24 view .LVU655
.LBE336:
.LBE335:
	.loc 1 303 5 is_stmt 1 view .LVU656
.LBB337:
.LBI337:
	.loc 3 132 1 view .LVU657
.LBB338:
	.loc 3 135 3 view .LVU658
	.loc 3 135 25 is_stmt 0 view .LVU659
	movq	8(%rbx), %rdi
	movq	%r12, %rdx
	leaq	-232(%rbp), %rcx
.LVL238:
	.loc 3 135 25 view .LVU660
	movl	$1, %esi
	call	__vfprintf_chk@PLT
.LVL239:
	.loc 3 135 25 view .LVU661
.LBE338:
.LBE337:
	.loc 1 304 5 is_stmt 1 view .LVU662
.LBB339:
.LBI339:
	.loc 3 103 1 view .LVU663
.LBB340:
	.loc 3 105 3 view .LVU664
	.loc 3 105 24 is_stmt 0 view .LVU665
	movq	8(%rbx), %rdi
	movq	%r13, %rdx
	xorl	%eax, %eax
	movl	$1, %esi
	call	__fprintf_chk@PLT
.LVL240:
	.loc 3 105 24 view .LVU666
.LBE340:
.LBE339:
	.loc 1 306 5 is_stmt 1 view .LVU667
	.loc 1 307 4 view .LVU668
	.loc 1 309 5 view .LVU669
	.loc 1 310 5 is_stmt 0 view .LVU670
	addq	$216, %rsp
	xorl	%eax, %eax
	popq	%rbx
.LVL241:
	.loc 1 310 5 view .LVU671
	popq	%r12
.LVL242:
	.loc 1 310 5 view .LVU672
	popq	%r13
	popq	%rbp
	.cfi_def_cfa 7, 8
	ret
	.cfi_endproc
.LFE2489:
	.size	_ZN6Logger13LogMsgNullRetEPKcz, .-_ZN6Logger13LogMsgNullRetEPKcz
	.section	.rodata.str1.1
.LC26:
	.string	"\n\terror: (code %d) %s\n\n"
	.text
	.align 2
	.p2align 4
	.globl	_ZN6Logger8logerrorEiPKcz
	.type	_ZN6Logger8logerrorEiPKcz, @function
_ZN6Logger8logerrorEiPKcz:
.LVL243:
.LFB2490:
	.loc 1 314 5 is_stmt 1 view -0
	.cfi_startproc
	.loc 1 314 5 is_stmt 0 view .LVU674
	endbr64
	pushq	%rbp
	.cfi_def_cfa_offset 16
	.cfi_offset 6, -16
	movq	%rsp, %rbp
	.cfi_def_cfa_register 6
	pushq	%r13
	.cfi_offset 13, -24
	movl	%esi, %r13d
	pushq	%r12
	.cfi_offset 12, -32
	movq	%rdi, %r12
	subq	$208, %rsp
	movq	%rcx, -168(%rbp)
	movq	%r8, -160(%rbp)
	movq	%r9, -152(%rbp)
	testb	%al, %al
	je	.L122
	vmovaps	%xmm0, -144(%rbp)
	vmovaps	%xmm1, -128(%rbp)
	vmovaps	%xmm2, -112(%rbp)
	vmovaps	%xmm3, -96(%rbp)
	vmovaps	%xmm4, -80(%rbp)
	vmovaps	%xmm5, -64(%rbp)
	vmovaps	%xmm6, -48(%rbp)
	vmovaps	%xmm7, -32(%rbp)
.L122:
	.loc 1 315 5 is_stmt 1 view .LVU675
	.loc 1 316 4 view .LVU676
.LBB341:
.LBB342:
	.loc 3 135 25 is_stmt 0 view .LVU677
	movq	8(%r12), %rdi
.LVL244:
	.loc 3 135 25 view .LVU678
.LBE342:
.LBE341:
	.loc 1 316 22 view .LVU679
	leaq	16(%rbp), %rax
.LBB345:
.LBB343:
	.loc 3 135 25 view .LVU680
	movl	$1, %esi
.LVL245:
	.loc 3 135 25 view .LVU681
	leaq	-216(%rbp), %rcx
.LBE343:
.LBE345:
	.loc 1 316 22 view .LVU682
	movq	%rax, -208(%rbp)
	leaq	-192(%rbp), %rax
	movl	$24, -216(%rbp)
	movl	$48, -212(%rbp)
	movq	%rax, -200(%rbp)
	.loc 1 318 5 is_stmt 1 view .LVU683
.LVL246:
.LBB346:
.LBI341:
	.loc 3 132 1 view .LVU684
.LBB344:
	.loc 3 135 3 view .LVU685
	.loc 3 135 25 is_stmt 0 view .LVU686
	call	__vfprintf_chk@PLT
.LVL247:
	.loc 3 135 25 view .LVU687
.LBE344:
.LBE346:
	.loc 1 320 5 is_stmt 1 view .LVU688
	.loc 1 320 8 is_stmt 0 view .LVU689
	movl	%r13d, %edi
	call	strerror@PLT
.LVL248:
	movl	%r13d, %edx
	movq	%r12, %rdi
	leaq	.LC26(%rip), %rsi
	movq	%rax, %rcx
	xorl	%eax, %eax
	call	_ZN6Logger3logEPKcz
.LVL249:
	.loc 1 322 5 is_stmt 1 view .LVU690
	.loc 1 324 4 view .LVU691
	.loc 1 326 5 view .LVU692
	.loc 1 327 5 is_stmt 0 view .LVU693
	addq	$208, %rsp
	popq	%r12
.LVL250:
	.loc 1 327 5 view .LVU694
	popq	%r13
.LVL251:
	.loc 1 327 5 view .LVU695
	popq	%rbp
	.cfi_def_cfa 7, 8
	ret
	.cfi_endproc
.LFE2490:
	.size	_ZN6Logger8logerrorEiPKcz, .-_ZN6Logger8logerrorEiPKcz
	.align 2
	.p2align 4
	.globl	_ZN6Logger8logerrnoEPKcz
	.type	_ZN6Logger8logerrnoEPKcz, @function
_ZN6Logger8logerrnoEPKcz:
.LVL252:
.LFB2491:
	.loc 1 330 5 is_stmt 1 view -0
	.cfi_startproc
	.loc 1 330 5 is_stmt 0 view .LVU697
	endbr64
	pushq	%rbp
	.cfi_def_cfa_offset 16
	.cfi_offset 6, -16
	movq	%rsi, %r10
	movq	%rsp, %rbp
	.cfi_def_cfa_register 6
	pushq	%r12
	.cfi_offset 12, -24
	movq	%rdi, %r12
	pushq	%rbx
	subq	$208, %rsp
	.cfi_offset 3, -32
	movq	%rdx, -176(%rbp)
	movq	%rcx, -168(%rbp)
	movq	%r8, -160(%rbp)
	movq	%r9, -152(%rbp)
	testb	%al, %al
	je	.L126
	vmovaps	%xmm0, -144(%rbp)
	vmovaps	%xmm1, -128(%rbp)
	vmovaps	%xmm2, -112(%rbp)
	vmovaps	%xmm3, -96(%rbp)
	vmovaps	%xmm4, -80(%rbp)
	vmovaps	%xmm5, -64(%rbp)
	vmovaps	%xmm6, -48(%rbp)
	vmovaps	%xmm7, -32(%rbp)
.L126:
	.loc 1 331 5 is_stmt 1 view .LVU698
	.loc 1 332 4 view .LVU699
.LBB347:
.LBB348:
	.loc 3 135 25 is_stmt 0 view .LVU700
	movq	8(%r12), %rdi
.LVL253:
	.loc 3 135 25 view .LVU701
.LBE348:
.LBE347:
	.loc 1 332 22 view .LVU702
	leaq	16(%rbp), %rax
.LBB351:
.LBB349:
	.loc 3 135 25 view .LVU703
	movq	%r10, %rdx
	movl	$1, %esi
.LVL254:
	.loc 3 135 25 view .LVU704
	leaq	-216(%rbp), %rcx
.LBE349:
.LBE351:
	.loc 1 332 22 view .LVU705
	movq	%rax, -208(%rbp)
	leaq	-192(%rbp), %rax
	movl	$16, -216(%rbp)
	movl	$48, -212(%rbp)
	movq	%rax, -200(%rbp)
	.loc 1 334 5 is_stmt 1 view .LVU706
.LVL255:
.LBB352:
.LBI347:
	.loc 3 132 1 view .LVU707
.LBB350:
	.loc 3 135 3 view .LVU708
	.loc 3 135 25 is_stmt 0 view .LVU709
	call	__vfprintf_chk@PLT
.LVL256:
	.loc 3 135 25 view .LVU710
.LBE350:
.LBE352:
	.loc 1 336 5 is_stmt 1 view .LVU711
	.loc 1 336 74 is_stmt 0 view .LVU712
	call	__errno_location@PLT
.LVL257:
	.loc 1 336 8 view .LVU713
	movl	(%rax), %edi
	.loc 1 336 74 view .LVU714
	movq	%rax, %rbx
	.loc 1 336 8 view .LVU715
	call	strerror@PLT
.LVL258:
	movl	(%rbx), %edx
	movq	%r12, %rdi
	leaq	.LC26(%rip), %rsi
	movq	%rax, %rcx
	xorl	%eax, %eax
	call	_ZN6Logger3logEPKcz
.LVL259:
	.loc 1 338 5 is_stmt 1 view .LVU716
	.loc 1 339 4 view .LVU717
	.loc 1 341 5 view .LVU718
	.loc 1 342 5 is_stmt 0 view .LVU719
	addq	$208, %rsp
	popq	%rbx
	popq	%r12
.LVL260:
	.loc 1 342 5 view .LVU720
	popq	%rbp
	.cfi_def_cfa 7, 8
	ret
	.cfi_endproc
.LFE2491:
	.size	_ZN6Logger8logerrnoEPKcz, .-_ZN6Logger8logerrnoEPKcz
	.section	.rodata.str1.1
.LC27:
	.string	"Everything fine\n\n"
	.text
	.align 2
	.p2align 4
	.globl	_ZN6Logger10checkerrnoEPKcz
	.type	_ZN6Logger10checkerrnoEPKcz, @function
_ZN6Logger10checkerrnoEPKcz:
.LVL261:
.LFB2492:
	.loc 1 345 5 is_stmt 1 view -0
	.cfi_startproc
	.loc 1 345 5 is_stmt 0 view .LVU722
	endbr64
	pushq	%rbp
	.cfi_def_cfa_offset 16
	.cfi_offset 6, -16
	movq	%rsp, %rbp
	.cfi_def_cfa_register 6
	pushq	%r13
	.cfi_offset 13, -24
	movq	%rsi, %r13
	pushq	%r12
	.cfi_offset 12, -32
	movq	%rdi, %r12
	pushq	%rbx
	subq	$216, %rsp
	.cfi_offset 3, -40
	movq	%rdx, -192(%rbp)
	movq	%rcx, -184(%rbp)
	movq	%r8, -176(%rbp)
	movq	%r9, -168(%rbp)
	testb	%al, %al
	je	.L132
	vmovaps	%xmm0, -160(%rbp)
	vmovaps	%xmm1, -144(%rbp)
	vmovaps	%xmm2, -128(%rbp)
	vmovaps	%xmm3, -112(%rbp)
	vmovaps	%xmm4, -96(%rbp)
	vmovaps	%xmm5, -80(%rbp)
	vmovaps	%xmm6, -64(%rbp)
	vmovaps	%xmm7, -48(%rbp)
.L132:
	.loc 1 346 5 is_stmt 1 view .LVU723
.LBB353:
	.loc 1 346 27 is_stmt 0 view .LVU724
	call	__errno_location@PLT
.LVL262:
	.loc 1 346 27 view .LVU725
	movq	%rax, %rbx
	.loc 1 346 5 view .LVU726
	movl	(%rax), %eax
	testl	%eax, %eax
	je	.L130
.LBB354:
	.loc 1 348 9 is_stmt 1 view .LVU727
	.loc 1 349 8 view .LVU728
.LBB355:
.LBB356:
	.loc 3 135 25 is_stmt 0 view .LVU729
	movq	8(%r12), %rdi
.LBE356:
.LBE355:
	.loc 1 349 26 view .LVU730
	leaq	16(%rbp), %rax
.LBB359:
.LBB357:
	.loc 3 135 25 view .LVU731
	movq	%r13, %rdx
	movl	$1, %esi
	leaq	-232(%rbp), %rcx
.LBE357:
.LBE359:
	.loc 1 349 26 view .LVU732
	movq	%rax, -224(%rbp)
	leaq	-208(%rbp), %rax
	movl	$16, -232(%rbp)
	movl	$48, -228(%rbp)
	movq	%rax, -216(%rbp)
	.loc 1 351 9 is_stmt 1 view .LVU733
.LVL263:
.LBB360:
.LBI355:
	.loc 3 132 1 view .LVU734
.LBB358:
	.loc 3 135 3 view .LVU735
	.loc 3 135 25 is_stmt 0 view .LVU736
	call	__vfprintf_chk@PLT
.LVL264:
	.loc 3 135 25 view .LVU737
.LBE358:
.LBE360:
	.loc 1 353 9 is_stmt 1 view .LVU738
	.loc 1 353 12 is_stmt 0 view .LVU739
	movl	(%rbx), %edi
	call	strerror@PLT
.LVL265:
	movl	(%rbx), %edx
	movq	%r12, %rdi
	leaq	.LC26(%rip), %rsi
	movq	%rax, %rcx
	xorl	%eax, %eax
	call	_ZN6Logger3logEPKcz
.LVL266:
.LBE354:
.LBE353:
	.loc 1 361 5 view .LVU740
	addq	$216, %rsp
	popq	%rbx
	popq	%r12
.LVL267:
	.loc 1 361 5 view .LVU741
	popq	%r13
.LVL268:
	.loc 1 361 5 view .LVU742
	popq	%rbp
	.cfi_remember_state
	.cfi_def_cfa 7, 8
	ret
.LVL269:
	.p2align 4,,10
	.p2align 3
.L130:
	.cfi_restore_state
.LBB361:
	.loc 1 357 9 is_stmt 1 view .LVU743
	.loc 1 357 12 is_stmt 0 view .LVU744
	movq	%r12, %rdi
	leaq	.LC27(%rip), %rsi
	xorl	%eax, %eax
	call	_ZN6Logger3logEPKcz
.LVL270:
.LBE361:
	.loc 1 360 5 is_stmt 1 view .LVU745
	.loc 1 361 5 is_stmt 0 view .LVU746
	addq	$216, %rsp
	popq	%rbx
	popq	%r12
.LVL271:
	.loc 1 361 5 view .LVU747
	popq	%r13
.LVL272:
	.loc 1 361 5 view .LVU748
	popq	%rbp
	.cfi_def_cfa 7, 8
	ret
	.cfi_endproc
.LFE2492:
	.size	_ZN6Logger10checkerrnoEPKcz, .-_ZN6Logger10checkerrnoEPKcz
	.section	.text.startup,"ax",@progbits
	.p2align 4
	.type	_GLOBAL__sub_I__ZN6LoggerC2EPKc, @function
_GLOBAL__sub_I__ZN6LoggerC2EPKc:
.LFB3072:
	.loc 1 361 5 is_stmt 1 view -0
	.cfi_startproc
	endbr64
.LBB364:
.LBI364:
	.loc 1 361 5 view .LVU750
.LVL273:
	.loc 1 361 5 is_stmt 0 view .LVU751
.LBE364:
	pushq	%rbp
	.cfi_def_cfa_offset 16
	.cfi_offset 6, -16
	movq	%rsp, %rbp
	.cfi_def_cfa_register 6
	pushq	%r12
	.cfi_offset 12, -24
.LBB369:
.LBB365:
	.file 7 "/usr/include/c++/11/iostream"
	.loc 7 74 25 view .LVU752
	leaq	_ZStL8__ioinit(%rip), %r12
	movq	%r12, %rdi
.LBE365:
.LBE369:
	.loc 1 361 5 view .LVU753
	subq	$8, %rsp
.LBB370:
.LBB366:
	.loc 7 74 25 view .LVU754
	call	_ZNSt8ios_base4InitC1Ev@PLT
.LVL274:
	movq	_ZNSt8ios_base4InitD1Ev@GOTPCREL(%rip), %rdi
.LBE366:
.LBE370:
	.loc 1 361 5 view .LVU755
	addq	$8, %rsp
.LBB371:
.LBB367:
	.loc 7 74 25 view .LVU756
	movq	%r12, %rsi
	leaq	__dso_handle(%rip), %rdx
.LBE367:
.LBE371:
	.loc 1 361 5 view .LVU757
	popq	%r12
	popq	%rbp
	.cfi_def_cfa 7, 8
.LBB372:
.LBB368:
	.loc 7 74 25 view .LVU758
	jmp	__cxa_atexit@PLT
.LVL275:
.LBE368:
.LBE372:
	.cfi_endproc
.LFE3072:
	.size	_GLOBAL__sub_I__ZN6LoggerC2EPKc, .-_GLOBAL__sub_I__ZN6LoggerC2EPKc
	.section	.init_array,"aw"
	.align 8
	.quad	_GLOBAL__sub_I__ZN6LoggerC2EPKc
	.weak	_ZTS6Logger
	.section	.rodata._ZTS6Logger,"aG",@progbits,_ZTS6Logger,comdat
	.align 8
	.type	_ZTS6Logger, @object
	.size	_ZTS6Logger, 8
_ZTS6Logger:
	.string	"6Logger"
	.weak	_ZTI6Logger
	.section	.data.rel.ro._ZTI6Logger,"awG",@progbits,_ZTI6Logger,comdat
	.align 8
	.type	_ZTI6Logger, @object
	.size	_ZTI6Logger, 24
_ZTI6Logger:
	.quad	_ZTVN10__cxxabiv120__si_class_type_infoE+16
	.quad	_ZTS6Logger
	.quad	_ZTISo
	.hidden	_ZTC6Logger0_So
	.weak	_ZTC6Logger0_So
	.section	.data.rel.ro._ZTC6Logger0_So,"awG",@progbits,_ZTV6Logger,comdat
	.align 8
	.type	_ZTC6Logger0_So, @object
	.size	_ZTC6Logger0_So, 80
_ZTC6Logger0_So:
	.quad	32
	.quad	0
	.quad	_ZTISo
	.quad	0
	.quad	0
	.quad	-32
	.quad	-32
	.quad	_ZTISo
	.quad	0
	.quad	0
	.weak	_ZTT6Logger
	.section	.data.rel.ro.local._ZTT6Logger,"awG",@progbits,_ZTV6Logger,comdat
	.align 8
	.type	_ZTT6Logger, @object
	.size	_ZTT6Logger, 32
_ZTT6Logger:
	.quad	_ZTV6Logger+24
	.quad	_ZTC6Logger0_So+24
	.quad	_ZTC6Logger0_So+64
	.quad	_ZTV6Logger+64
	.weak	_ZTV6Logger
	.section	.data.rel.ro.local._ZTV6Logger,"awG",@progbits,_ZTV6Logger,comdat
	.align 8
	.type	_ZTV6Logger, @object
	.size	_ZTV6Logger, 80
_ZTV6Logger:
	.quad	32
	.quad	0
	.quad	_ZTI6Logger
	.quad	_ZN6LoggerD1Ev
	.quad	_ZN6LoggerD0Ev
	.quad	-32
	.quad	-32
	.quad	_ZTI6Logger
	.quad	_ZTv0_n24_N6LoggerD1Ev
	.quad	_ZTv0_n24_N6LoggerD0Ev
	.local	_ZGVZN6Logger11getInstanceEvE6logger
	.comm	_ZGVZN6Logger11getInstanceEvE6logger,8,8
	.local	_ZZN6Logger11getInstanceEvE6logger
	.comm	_ZZN6Logger11getInstanceEvE6logger,296,32
	.section	.rodata
	.align 16
	.type	_ZL12STD_LOG_NAME, @object
	.size	_ZL12STD_LOG_NAME, 18
_ZL12STD_LOG_NAME:
	.string	"./logs/stdlog.ars"
	.local	_ZStL8__ioinit
	.comm	_ZStL8__ioinit,1,1
	.text
.Letext0:
	.section	.text.unlikely
.Letext_cold0:
	.file 8 "/usr/lib/gcc/x86_64-linux-gnu/11/include/stddef.h"
	.file 9 "/usr/lib/gcc/x86_64-linux-gnu/11/include/stdarg.h"
	.file 10 "<built-in>"
	.file 11 "/usr/include/x86_64-linux-gnu/bits/types/wint_t.h"
	.file 12 "/usr/include/x86_64-linux-gnu/bits/types/__mbstate_t.h"
	.file 13 "/usr/include/x86_64-linux-gnu/bits/types/mbstate_t.h"
	.file 14 "/usr/include/x86_64-linux-gnu/bits/types/__FILE.h"
	.file 15 "/usr/include/x86_64-linux-gnu/bits/types/struct_FILE.h"
	.file 16 "/usr/include/x86_64-linux-gnu/bits/types/FILE.h"
	.file 17 "/usr/include/c++/11/cwchar"
	.file 18 "/usr/include/x86_64-linux-gnu/c++/11/bits/c++config.h"
	.file 19 "/usr/include/c++/11/type_traits"
	.file 20 "/usr/include/c++/11/bits/exception_ptr.h"
	.file 21 "/usr/include/c++/11/concepts"
	.file 22 "/usr/include/c++/11/bits/iterator_concepts.h"
	.file 23 "/usr/include/c++/11/bits/ranges_cmp.h"
	.file 24 "/usr/include/c++/11/compare"
	.file 25 "/usr/include/c++/11/debug/debug.h"
	.file 26 "/usr/include/c++/11/bits/char_traits.h"
	.file 27 "/usr/include/c++/11/cstdint"
	.file 28 "/usr/include/c++/11/clocale"
	.file 29 "/usr/include/c++/11/cstdlib"
	.file 30 "/usr/include/c++/11/numbers"
	.file 31 "/usr/include/c++/11/cstdio"
	.file 32 "/usr/include/c++/11/bits/ios_base.h"
	.file 33 "/usr/include/c++/11/cwctype"
	.file 34 "/usr/include/c++/11/bits/std_abs.h"
	.file 35 "/usr/include/c++/11/bits/basic_ios.tcc"
	.file 36 "/usr/include/wchar.h"
	.file 37 "/usr/include/x86_64-linux-gnu/bits/wchar2.h"
	.file 38 "/usr/include/x86_64-linux-gnu/bits/types/struct_tm.h"
	.file 39 "/usr/include/c++/11/bits/predefined_ops.h"
	.file 40 "/usr/include/c++/11/bits/ptr_traits.h"
	.file 41 "/usr/include/x86_64-linux-gnu/bits/types.h"
	.file 42 "/usr/include/x86_64-linux-gnu/bits/stdint-intn.h"
	.file 43 "/usr/include/x86_64-linux-gnu/bits/stdint-uintn.h"
	.file 44 "/usr/include/stdint.h"
	.file 45 "/usr/include/locale.h"
	.file 46 "/usr/include/x86_64-linux-gnu/bits/types/time_t.h"
	.file 47 "/usr/include/stdlib.h"
	.file 48 "/usr/include/x86_64-linux-gnu/bits/stdlib-float.h"
	.file 49 "/usr/include/x86_64-linux-gnu/bits/stdlib-bsearch.h"
	.file 50 "/usr/include/x86_64-linux-gnu/bits/stdlib.h"
	.file 51 "/usr/include/x86_64-linux-gnu/bits/types/__fpos_t.h"
	.file 52 "/usr/include/stdio.h"
	.file 53 "/usr/include/x86_64-linux-gnu/bits/stdio.h"
	.file 54 "/usr/include/x86_64-linux-gnu/bits/wctype-wchar.h"
	.file 55 "/usr/include/wctype.h"
	.file 56 "./ATC/Logger/LogConfig.h"
	.file 57 "/usr/include/c++/11/stdlib.h"
	.file 58 "./ATC/Buffer/my_buffer.h"
	.file 59 "/usr/include/errno.h"
	.file 60 "/usr/include/string.h"
	.file 61 "/usr/include/malloc.h"
	.file 62 "/usr/include/c++/11/new"
	.file 63 "/usr/include/time.h"
	.file 64 "/usr/include/c++/11/bits/algorithmfwd.h"
	.section	.data.rel.local.DW.ref._ZTIPKc,"awG",@progbits,DW.ref._ZTIPKc,comdat
	.align 8
	.type	DW.ref._ZTIPKc, @object
	.size	DW.ref._ZTIPKc, 8
DW.ref._ZTIPKc:
	.quad	_ZTIPKc
	.hidden	DW.ref.__gxx_personality_v0
	.weak	DW.ref.__gxx_personality_v0
	.section	.data.rel.local.DW.ref.__gxx_personality_v0,"awG",@progbits,DW.ref.__gxx_personality_v0,comdat
	.align 8
	.type	DW.ref.__gxx_personality_v0, @object
	.size	DW.ref.__gxx_personality_v0, 8
DW.ref.__gxx_personality_v0:
	.quad	__gxx_personality_v0
	.hidden	__dso_handle
	.ident	"GCC: (Ubuntu 11.3.0-1ubuntu1~22.04) 11.3.0"
	.section	.note.GNU-stack,"",@progbits
	.section	.note.gnu.property,"a"
	.align 8
	.long	1f - 0f
	.long	4f - 1f
	.long	5
0:
	.string	"GNU"
1:
	.align 8
	.long	0xc0000002
	.long	3f - 2f
2:
	.long	0x3
3:
	.align 8
4:
