	.file	"ProcessData.cpp"
	.text
.Ltext0:
	.file 0 "/home/arsenyfucker/Desktop/PROJECTS/HashTable" "./src/ProcessData.cpp"
	.section	.rodata.str1.1,"aMS",@progbits,1
.LC0:
	.string	"ResizeBuffer"
	.text
	.p2align 4
	.type	_ZL12ResizeBufferP10DataBuffer.isra.0, @function
_ZL12ResizeBufferP10DataBuffer.isra.0:
.LVL0:
.LFB8511:
	.file 1 "./src/ProcessData.cpp"
	.loc 1 75 12 view -0
	.cfi_startproc
	.loc 1 77 5 view .LVU1
	.loc 1 75 12 is_stmt 0 view .LVU2
	pushq	%rbp
	.cfi_def_cfa_offset 16
	.cfi_offset 6, -16
	.loc 1 77 46 view .LVU3
	leaq	.LC0(%rip), %rdx
	movl	$666, %esi
	.loc 1 75 12 view .LVU4
	movq	%rsp, %rbp
	.cfi_def_cfa_register 6
	pushq	%r15
	pushq	%r14
	.cfi_offset 15, -24
	.cfi_offset 14, -32
	.loc 1 77 46 view .LVU5
	leaq	-80(%rbp), %r14
	.loc 1 75 12 view .LVU6
	pushq	%r13
	pushq	%r12
	pushq	%rbx
	.cfi_offset 13, -40
	.cfi_offset 12, -48
	.cfi_offset 3, -56
	movq	%rdi, %rbx
	.loc 1 77 46 view .LVU7
	movq	%r14, %rdi
.LVL1:
	.loc 1 75 12 view .LVU8
	subq	$40, %rsp
	.loc 1 77 46 view .LVU9
	call	_ZN14FunctionLoggerC1EiPKc@PLT
.LVL2:
	.loc 1 78 4 is_stmt 1 view .LVU10
	.loc 1 80 5 view .LVU11
	.loc 1 82 5 view .LVU12
.LBB18:
	.loc 1 82 17 is_stmt 0 view .LVU13
	movq	8(%rbx), %r12
	.loc 1 82 55 view .LVU14
	movq	16(%rbx), %rax
.LBE18:
	.loc 1 96 40 view .LVU15
	movl	$256, %edi
.LBB19:
	.loc 1 84 44 view .LVU16
	movq	%r12, %rcx
	.loc 1 82 5 view .LVU17
	cmpq	%rax, %r12
	.loc 1 84 44 view .LVU18
	leaq	(%rax,%rax), %rdx
	movb	$0, %cl
	leaq	512(%rcx), %rsi
	cmovnb	%rdx, %rsi
	movq	%rsi, 16(%rbx)
.LVL3:
	.loc 1 84 44 view .LVU19
.LBE19:
	.loc 1 96 5 is_stmt 1 view .LVU20
	.loc 1 96 40 is_stmt 0 view .LVU21
	salq	$5, %rsi
.LVL4:
	.loc 1 96 40 view .LVU22
	call	aligned_alloc@PLT
.LVL5:
	.loc 1 97 27 view .LVU23
	movq	(%rbx), %r15
	.loc 1 97 12 view .LVU24
	movq	%r12, %rdx
	salq	$5, %rdx
.LBB20:
.LBB21:
	.file 2 "/usr/include/x86_64-linux-gnu/bits/string_fortified.h"
	.loc 2 29 33 view .LVU25
	movq	%rax, %rdi
.LBE21:
.LBE20:
	.loc 1 96 40 view .LVU26
	movq	%rax, %r13
.LVL6:
	.loc 1 97 5 is_stmt 1 view .LVU27
.LBB23:
.LBI20:
	.loc 2 26 28 view .LVU28
.LBB22:
	.loc 2 29 3 view .LVU29
	.loc 2 29 33 is_stmt 0 view .LVU30
	movq	%r15, %rsi
	call	memcpy@PLT
.LVL7:
	.loc 2 29 33 view .LVU31
.LBE22:
.LBE23:
	.loc 1 99 5 is_stmt 1 view .LVU32
	.loc 1 99 10 is_stmt 0 view .LVU33
	movq	%r15, %rdi
	call	free@PLT
.LVL8:
	.loc 1 100 5 is_stmt 1 view .LVU34
	.loc 1 100 24 is_stmt 0 view .LVU35
	movq	%r13, (%rbx)
	.loc 1 102 5 is_stmt 1 view .LVU36
.LVL9:
	.loc 1 104 5 view .LVU37
	.loc 1 105 5 is_stmt 0 view .LVU38
	movq	%r14, %rdi
	call	_ZN14FunctionLoggerD1Ev@PLT
.LVL10:
	addq	$40, %rsp
	popq	%rbx
.LVL11:
	.loc 1 105 5 view .LVU39
	popq	%r12
	.loc 1 105 5 view .LVU40
	popq	%r13
	popq	%r14
	popq	%r15
	popq	%rbp
	.cfi_def_cfa 7, 8
	ret
	.cfi_endproc
.LFE8511:
	.size	_ZL12ResizeBufferP10DataBuffer.isra.0, .-_ZL12ResizeBufferP10DataBuffer.isra.0
	.section	.rodata.str1.1
.LC1:
	.string	"ProcessData"
.LC2:
	.string	"AddWordToDataBuffer"
.LC3:
	.string	"%[a-zA-Z]%n"
.LC4:
	.string	"./src/ProcessData.cpp"
	.section	.rodata.str1.8,"aMS",@progbits,1
	.align 8
.LC5:
	.string	"\033[96m(%s:%d)\033[0m Warning: '%.30s' is longer than MAX_WORD_LENGHT (%d)\n"
	.section	.rodata.str1.1
.LC6:
	.string	"SkipUnnecessarySymbols"
	.section	.text.unlikely,"ax",@progbits
.LCOLDB7:
	.text
.LHOTB7:
	.p2align 4
	.section	.text.unlikely
.Ltext_cold0:
	.text
	.globl	_Z11ProcessDataP14processed_dataPc
	.type	_Z11ProcessDataP14processed_dataPc, @function
_Z11ProcessDataP14processed_dataPc:
.LVL12:
.LFB7939:
	.loc 1 25 5 is_stmt 1 view -0
	.cfi_startproc
	.cfi_personality 0x9b,DW.ref.__gxx_personality_v0
	.cfi_lsda 0x1b,.LLSDA7939
	.loc 1 25 5 is_stmt 0 view .LVU42
	endbr64
	.loc 1 26 5 is_stmt 1 view .LVU43
	.loc 1 25 5 is_stmt 0 view .LVU44
	pushq	%rbp
	.cfi_def_cfa_offset 16
	.cfi_offset 6, -16
	.loc 1 26 46 view .LVU45
	leaq	.LC1(%rip), %rdx
	.loc 1 25 5 view .LVU46
	movq	%rsp, %rbp
	.cfi_def_cfa_register 6
	pushq	%r15
	pushq	%r14
	.loc 1 26 46 view .LVU47
	leaq	-144(%rbp), %rax
	.loc 1 25 5 view .LVU48
	pushq	%r13
	.cfi_offset 15, -24
	.cfi_offset 14, -32
	.cfi_offset 13, -40
	leaq	-80(%rbp), %r13
	pushq	%r12
	pushq	%rbx
	.cfi_offset 12, -48
	.cfi_offset 3, -56
	movq	%rsi, %rbx
	.loc 1 26 46 view .LVU49
	movl	$666, %esi
.LVL13:
	.loc 1 25 5 view .LVU50
	subq	$136, %rsp
	.loc 1 25 5 view .LVU51
	movq	%rdi, -176(%rbp)
	.loc 1 26 46 view .LVU52
	movq	%rax, %rdi
.LVL14:
	.loc 1 26 46 view .LVU53
	movq	%rax, -168(%rbp)
.LEHB0:
	call	_ZN14FunctionLoggerC1EiPKc@PLT
.LVL15:
.LEHE0:
	.loc 1 27 4 is_stmt 1 view .LVU54
	.loc 1 28 4 view .LVU55
	.loc 1 30 5 view .LVU56
	.loc 1 36 47 is_stmt 0 view .LVU57
	movl	$8192, %esi
	movl	$256, %edi
	.loc 1 30 16 view .LVU58
	movq	$0, -104(%rbp)
	movq	$256, -96(%rbp)
	.loc 1 36 5 is_stmt 1 view .LVU59
	.loc 1 36 47 is_stmt 0 view .LVU60
	call	aligned_alloc@PLT
.LVL16:
	.loc 1 39 26 view .LVU61
	cmpb	$0, (%rbx)
	.loc 1 36 23 view .LVU62
	movq	%rax, -112(%rbp)
	.loc 1 37 4 is_stmt 1 view .LVU63
	.loc 1 39 5 view .LVU64
	.loc 1 39 26 view .LVU65
	je	.L16
	.p2align 4,,10
	.p2align 3
.L7:
.LBB31:
	.loc 1 41 9 view .LVU66
.LVL17:
.LBB32:
.LBI32:
	.loc 1 55 12 view .LVU67
.LBB33:
	.loc 1 57 5 view .LVU68
	.loc 1 57 46 is_stmt 0 view .LVU69
	leaq	.LC2(%rip), %rdx
	movl	$666, %esi
	movq	%r13, %rdi
.LEHB1:
	call	_ZN14FunctionLoggerC1EiPKc@PLT
.LVL18:
.LEHE1:
	.loc 1 58 4 is_stmt 1 view .LVU70
	.loc 1 59 4 view .LVU71
	.loc 1 61 5 view .LVU72
	.loc 1 61 17 is_stmt 0 view .LVU73
	movq	-104(%rbp), %r12
	.loc 1 61 5 view .LVU74
	cmpq	-96(%rbp), %r12
	jb	.L9
	.loc 1 62 13 is_stmt 1 view .LVU75
	.loc 1 62 25 is_stmt 0 view .LVU76
	leaq	-112(%rbp), %rdi
.LVL19:
.LEHB2:
	.loc 1 62 25 view .LVU77
	call	_ZL12ResizeBufferP10DataBuffer.isra.0
.LVL20:
	.loc 1 66 50 view .LVU78
	movq	-104(%rbp), %r12
.L9:
	.loc 1 64 5 is_stmt 1 view .LVU79
	.loc 1 66 29 is_stmt 0 view .LVU80
	movq	-112(%rbp), %r14
	.loc 1 66 40 view .LVU81
	movq	%r12, %rdx
	.loc 1 65 11 view .LVU82
	leaq	-148(%rbp), %rcx
	xorl	%eax, %eax
	.loc 1 66 40 view .LVU83
	salq	$5, %rdx
	.loc 1 65 11 view .LVU84
	movq	%rbx, %rdi
	leaq	.LC3(%rip), %rsi
	.loc 1 64 9 view .LVU85
	movl	$0, -148(%rbp)
	.loc 1 65 5 is_stmt 1 view .LVU86
	.loc 1 66 40 is_stmt 0 view .LVU87
	addq	%r14, %rdx
	.loc 1 65 11 view .LVU88
	call	__isoc99_sscanf@PLT
.LVL21:
	.loc 1 68 5 is_stmt 1 view .LVU89
	.loc 1 68 21 is_stmt 0 view .LVU90
	movl	-148(%rbp), %r15d
	.loc 1 68 5 view .LVU91
	cmpl	$31, %r15d
	jle	.L10
	.loc 1 69 9 is_stmt 1 view .LVU92
.LVL22:
.LBB34:
.LBI34:
	.file 3 "/usr/include/x86_64-linux-gnu/bits/stdio2.h"
	.loc 3 110 1 view .LVU93
.LBB35:
	.loc 3 112 3 view .LVU94
	.loc 3 112 23 is_stmt 0 view .LVU95
	movl	$31, %r9d
	movq	%rbx, %r8
	movl	$69, %ecx
	xorl	%eax, %eax
	leaq	.LC4(%rip), %rdx
	leaq	.LC5(%rip), %rsi
	movl	$1, %edi
	call	__printf_chk@PLT
.LVL23:
.LEHE2:
.LBE35:
.LBE34:
	.loc 1 72 12 view .LVU96
	movl	-148(%rbp), %r15d
.LVL24:
.L10:
	.loc 1 71 5 is_stmt 1 view .LVU97
	.loc 1 73 5 is_stmt 0 view .LVU98
	movq	%r13, %rdi
	.loc 1 71 39 view .LVU99
	addq	$1, %r12
	movq	%r12, -104(%rbp)
	.loc 1 72 5 is_stmt 1 view .LVU100
	.loc 1 73 5 is_stmt 0 view .LVU101
	call	_ZN14FunctionLoggerD1Ev@PLT
.LVL25:
	.loc 1 73 5 view .LVU102
.LBE33:
.LBE32:
	.loc 1 42 13 is_stmt 1 view .LVU103
	.loc 1 42 67 is_stmt 0 view .LVU104
	movslq	%r15d, %rax
.LBB38:
.LBB39:
	.loc 1 109 47 view .LVU105
	movl	$666, %esi
	movq	%r13, %rdi
	leaq	.LC6(%rip), %rdx
.LBE39:
.LBE38:
	.loc 1 42 51 view .LVU106
	addq	%rax, %rbx
.LVL26:
.LBB41:
.LBI38:
	.loc 1 107 18 is_stmt 1 view .LVU107
.LBB40:
	.loc 1 109 5 view .LVU108
.LEHB3:
	.loc 1 109 47 is_stmt 0 view .LVU109
	call	_ZN14FunctionLoggerC1EiPKc@PLT
.LVL27:
	jmp	.L33
	.p2align 4,,10
	.p2align 3
.L34:
	.loc 1 113 33 view .LVU110
	movsbl	%al, %edi
	call	isalpha@PLT
.LVL28:
	.loc 1 113 22 view .LVU111
	testl	%eax, %eax
	jne	.L12
	.loc 1 114 9 is_stmt 1 view .LVU112
	.loc 1 114 17 is_stmt 0 view .LVU113
	addq	$1, %rbx
.LVL29:
.L33:
	.loc 1 113 22 is_stmt 1 view .LVU114
	.loc 1 113 12 is_stmt 0 view .LVU115
	movzbl	(%rbx), %eax
	.loc 1 113 22 view .LVU116
	testb	%al, %al
	jne	.L34
.L12:
	.loc 1 116 5 is_stmt 1 view .LVU117
	.loc 1 117 5 is_stmt 0 view .LVU118
	movq	%r13, %rdi
	call	_ZN14FunctionLoggerD1Ev@PLT
.LVL30:
	.loc 1 117 5 view .LVU119
.LBE40:
.LBE41:
.LBE31:
	.loc 1 39 26 is_stmt 1 view .LVU120
	cmpb	$0, (%rbx)
	jne	.L7
	.loc 1 45 5 view .LVU121
	cmpq	%r12, -96(%rbp)
	ja	.L16
.L17:
	.loc 1 48 5 view .LVU122
	.loc 1 48 27 is_stmt 0 view .LVU123
	movq	-176(%rbp), %rax
	.loc 1 53 5 view .LVU124
	movq	-168(%rbp), %rdi
	.loc 1 48 27 view .LVU125
	movq	%r14, (%rax)
	.loc 1 49 5 is_stmt 1 view .LVU126
	.loc 1 49 31 is_stmt 0 view .LVU127
	movq	%r12, 8(%rax)
	.loc 1 52 5 is_stmt 1 view .LVU128
	.loc 1 53 5 is_stmt 0 view .LVU129
	call	_ZN14FunctionLoggerD1Ev@PLT
.LVL31:
	addq	$136, %rsp
	xorl	%eax, %eax
	popq	%rbx
.LVL32:
	.loc 1 53 5 view .LVU130
	popq	%r12
	popq	%r13
	popq	%r14
	popq	%r15
	popq	%rbp
	.cfi_remember_state
	.cfi_def_cfa 7, 8
	ret
.LVL33:
.L16:
	.cfi_restore_state
	.loc 1 46 9 is_stmt 1 view .LVU131
	.loc 1 46 21 is_stmt 0 view .LVU132
	leaq	-112(%rbp), %rdi
	call	_ZL12ResizeBufferP10DataBuffer.isra.0
.LVL34:
.LEHE3:
	.loc 1 48 36 view .LVU133
	movq	-112(%rbp), %r14
	.loc 1 49 40 view .LVU134
	movq	-104(%rbp), %r12
	jmp	.L17
.LVL35:
.L18:
	.loc 1 49 40 view .LVU135
	endbr64
	.loc 1 53 5 view .LVU136
	movq	%rax, %r12
	vzeroupper
	jmp	.L14
.LVL36:
.L19:
	.loc 1 53 5 view .LVU137
	endbr64
.LBB44:
.LBB42:
.LBB36:
	.loc 1 73 5 view .LVU138
	movq	%rax, %r12
	jmp	.L13
.LBE36:
.LBE42:
.LBE44:
	.globl	__gxx_personality_v0
	.section	.gcc_except_table,"a",@progbits
.LLSDA7939:
	.byte	0xff
	.byte	0xff
	.byte	0x1
	.uleb128 .LLSDACSE7939-.LLSDACSB7939
.LLSDACSB7939:
	.uleb128 .LEHB0-.LFB7939
	.uleb128 .LEHE0-.LEHB0
	.uleb128 0
	.uleb128 0
	.uleb128 .LEHB1-.LFB7939
	.uleb128 .LEHE1-.LEHB1
	.uleb128 .L18-.LFB7939
	.uleb128 0
	.uleb128 .LEHB2-.LFB7939
	.uleb128 .LEHE2-.LEHB2
	.uleb128 .L19-.LFB7939
	.uleb128 0
	.uleb128 .LEHB3-.LFB7939
	.uleb128 .LEHE3-.LEHB3
	.uleb128 .L18-.LFB7939
	.uleb128 0
.LLSDACSE7939:
	.text
	.cfi_endproc
	.section	.text.unlikely
	.cfi_startproc
	.cfi_personality 0x9b,DW.ref.__gxx_personality_v0
	.cfi_lsda 0x1b,.LLSDAC7939
	.type	_Z11ProcessDataP14processed_dataPc.cold, @function
_Z11ProcessDataP14processed_dataPc.cold:
.LFSB7939:
.LBB45:
.LBB43:
.LBB37:
.L13:
	.cfi_def_cfa 6, 16
	.cfi_offset 3, -56
	.cfi_offset 6, -16
	.cfi_offset 12, -48
	.cfi_offset 13, -40
	.cfi_offset 14, -32
	.cfi_offset 15, -24
	movq	%r13, %rdi
	vzeroupper
	call	_ZN14FunctionLoggerD1Ev@PLT
.LVL37:
.L14:
	.loc 1 73 5 view -0
.LBE37:
.LBE43:
.LBE45:
	.loc 1 53 5 view .LVU140
	movq	-168(%rbp), %rdi
	call	_ZN14FunctionLoggerD1Ev@PLT
.LVL38:
	movq	%r12, %rdi
.LEHB4:
	call	_Unwind_Resume@PLT
.LVL39:
.LEHE4:
	.cfi_endproc
.LFE7939:
	.section	.gcc_except_table
.LLSDAC7939:
	.byte	0xff
	.byte	0xff
	.byte	0x1
	.uleb128 .LLSDACSEC7939-.LLSDACSBC7939
.LLSDACSBC7939:
	.uleb128 .LEHB4-.LCOLDB7
	.uleb128 .LEHE4-.LEHB4
	.uleb128 0
	.uleb128 0
.LLSDACSEC7939:
	.section	.text.unlikely
	.text
	.size	_Z11ProcessDataP14processed_dataPc, .-_Z11ProcessDataP14processed_dataPc
	.section	.text.unlikely
	.size	_Z11ProcessDataP14processed_dataPc.cold, .-_Z11ProcessDataP14processed_dataPc.cold
.LCOLDE7:
	.text
.LHOTE7:
	.section	.rodata.str1.8
	.align 8
.LC8:
	.string	"\033[96m(%s:%d)\033[0m Warning: NULL data array in proc_data '%p'\n"
	.text
	.p2align 4
	.globl	_Z17ProcessedDataDtorP14processed_data
	.type	_Z17ProcessedDataDtorP14processed_data, @function
_Z17ProcessedDataDtorP14processed_data:
.LVL40:
.LFB7943:
	.loc 1 120 5 is_stmt 1 view -0
	.cfi_startproc
	.loc 1 120 5 is_stmt 0 view .LVU142
	endbr64
	.loc 1 121 4 is_stmt 1 view .LVU143
	.loc 1 123 5 view .LVU144
	.loc 1 120 5 is_stmt 0 view .LVU145
	pushq	%rbp
	.cfi_def_cfa_offset 16
	.cfi_offset 6, -16
	movq	%rdi, %r8
	.loc 1 123 20 view .LVU146
	movq	(%rdi), %rdi
.LVL41:
	.loc 1 120 5 view .LVU147
	movq	%rsp, %rbp
	.cfi_def_cfa_register 6
	.loc 1 123 5 view .LVU148
	testq	%rdi, %rdi
	je	.L36
	.loc 1 124 9 is_stmt 1 view .LVU149
	.loc 1 124 14 is_stmt 0 view .LVU150
	call	free@PLT
.LVL42:
	.loc 1 128 5 is_stmt 1 view .LVU151
	.loc 1 129 5 is_stmt 0 view .LVU152
	xorl	%eax, %eax
	popq	%rbp
	.cfi_remember_state
	.cfi_def_cfa 7, 8
	ret
.LVL43:
	.p2align 4,,10
	.p2align 3
.L36:
	.cfi_restore_state
	.loc 1 126 9 is_stmt 1 view .LVU153
.LBB46:
.LBI46:
	.loc 3 110 1 view .LVU154
.LBB47:
	.loc 3 112 3 view .LVU155
	.loc 3 112 23 is_stmt 0 view .LVU156
	movl	$126, %ecx
	leaq	.LC4(%rip), %rdx
	leaq	.LC8(%rip), %rsi
	xorl	%eax, %eax
	movl	$1, %edi
	call	__printf_chk@PLT
.LVL44:
	.loc 3 112 23 view .LVU157
.LBE47:
.LBE46:
	.loc 1 128 5 is_stmt 1 view .LVU158
	.loc 1 129 5 is_stmt 0 view .LVU159
	xorl	%eax, %eax
	popq	%rbp
	.cfi_def_cfa 7, 8
	ret
	.cfi_endproc
.LFE7943:
	.size	_Z17ProcessedDataDtorP14processed_data, .-_Z17ProcessedDataDtorP14processed_data
	.section	.rodata.str1.8
	.align 8
.LC9:
	.string	"\033[96m(%s:%d)\033[0m Couldn't read source data from '%s'\n"
	.align 8
.LC10:
	.string	"\033[96m(%s:%d)\033[0m Couldn't process data from file '%s'\n"
	.text
	.p2align 4
	.globl	_Z17ProcessedDataCtorP14processed_dataPKc
	.type	_Z17ProcessedDataCtorP14processed_dataPKc, @function
_Z17ProcessedDataCtorP14processed_dataPKc:
.LVL45:
.LFB7944:
	.loc 1 132 5 is_stmt 1 view -0
	.cfi_startproc
	.loc 1 132 5 is_stmt 0 view .LVU161
	endbr64
	.loc 1 133 4 is_stmt 1 view .LVU162
	.loc 1 134 4 view .LVU163
	.loc 1 136 5 view .LVU164
.LVL46:
	.loc 1 138 5 view .LVU165
	.loc 1 132 5 is_stmt 0 view .LVU166
	pushq	%rbp
	.cfi_def_cfa_offset 16
	.cfi_offset 6, -16
	movq	%rsp, %rbp
	.cfi_def_cfa_register 6
	pushq	%r13
	.cfi_offset 13, -24
	movq	%rdi, %r13
	.loc 1 138 37 view .LVU167
	movq	%rsi, %rdi
.LVL47:
	.loc 1 132 5 view .LVU168
	pushq	%r12
	pushq	%rbx
	.cfi_offset 12, -32
	.cfi_offset 3, -40
	movq	%rsi, %rbx
	subq	$8, %rsp
	.loc 1 138 37 view .LVU169
	call	_Z10GetSrcFilePKc@PLT
.LVL48:
	.loc 1 138 5 view .LVU170
	testq	%rax, %rax
	je	.L44
	.loc 1 144 20 view .LVU171
	movq	%r13, %rdi
	movq	%rax, %rsi
	movq	%rax, %r12
	.loc 1 144 5 is_stmt 1 view .LVU172
	.loc 1 144 20 is_stmt 0 view .LVU173
	call	_Z11ProcessDataP14processed_dataPc
.LVL49:
	.loc 1 144 20 view .LVU174
	movl	%eax, %r13d
.LVL50:
	.loc 1 144 5 view .LVU175
	testl	%eax, %eax
	jne	.L45
	.loc 1 152 5 is_stmt 1 view .LVU176
	.loc 1 152 10 is_stmt 0 view .LVU177
	movq	%r12, %rdi
	call	free@PLT
.LVL51:
	.loc 1 154 5 is_stmt 1 view .LVU178
.L39:
	.loc 1 155 5 is_stmt 0 view .LVU179
	addq	$8, %rsp
	movl	%r13d, %eax
	popq	%rbx
.LVL52:
	.loc 1 155 5 view .LVU180
	popq	%r12
	popq	%r13
	popq	%rbp
	.cfi_remember_state
	.cfi_def_cfa 7, 8
	ret
.LVL53:
	.p2align 4,,10
	.p2align 3
.L45:
	.cfi_restore_state
	.loc 1 146 9 is_stmt 1 view .LVU181
.LBB48:
.LBI48:
	.loc 3 110 1 view .LVU182
.LBB49:
	.loc 3 112 3 view .LVU183
	.loc 3 112 23 is_stmt 0 view .LVU184
	movq	%rbx, %r8
	movl	$146, %ecx
	movl	$1, %edi
	xorl	%eax, %eax
	leaq	.LC4(%rip), %rdx
	leaq	.LC10(%rip), %rsi
.LBE49:
.LBE48:
	.loc 1 149 16 view .LVU185
	movl	$-1, %r13d
.LBB51:
.LBB50:
	.loc 3 112 23 view .LVU186
	call	__printf_chk@PLT
.LVL54:
	.loc 3 112 23 view .LVU187
.LBE50:
.LBE51:
	.loc 1 148 9 is_stmt 1 view .LVU188
	.loc 1 148 13 is_stmt 0 view .LVU189
	movq	%r12, %rdi
	call	free@PLT
.LVL55:
	.loc 1 149 9 is_stmt 1 view .LVU190
	.loc 1 149 16 is_stmt 0 view .LVU191
	jmp	.L39
.LVL56:
.L44:
	.loc 1 140 9 is_stmt 1 view .LVU192
.LBB52:
.LBI52:
	.loc 3 110 1 view .LVU193
.LBB53:
	.loc 3 112 3 view .LVU194
	.loc 3 112 23 is_stmt 0 view .LVU195
	movq	%rbx, %r8
	movl	$140, %ecx
	movl	$1, %edi
	xorl	%eax, %eax
.LVL57:
	.loc 3 112 23 view .LVU196
	leaq	.LC4(%rip), %rdx
	leaq	.LC9(%rip), %rsi
.LBE53:
.LBE52:
	.loc 1 141 16 view .LVU197
	movl	$-1, %r13d
.LVL58:
.LBB55:
.LBB54:
	.loc 3 112 23 view .LVU198
	call	__printf_chk@PLT
.LVL59:
	.loc 3 112 23 view .LVU199
.LBE54:
.LBE55:
	.loc 1 141 9 is_stmt 1 view .LVU200
	.loc 1 141 16 is_stmt 0 view .LVU201
	jmp	.L39
	.cfi_endproc
.LFE7944:
	.size	_Z17ProcessedDataCtorP14processed_dataPKc, .-_Z17ProcessedDataCtorP14processed_dataPKc
	.section	.text.startup,"ax",@progbits
	.p2align 4
	.type	_GLOBAL__sub_I__Z11ProcessDataP14processed_dataPc, @function
_GLOBAL__sub_I__Z11ProcessDataP14processed_dataPc:
.LFB8510:
	.loc 1 155 5 is_stmt 1 view -0
	.cfi_startproc
	endbr64
.LBB58:
.LBI58:
	.loc 1 155 5 view .LVU203
.LVL60:
	.loc 1 155 5 is_stmt 0 view .LVU204
.LBE58:
	pushq	%rbp
	.cfi_def_cfa_offset 16
	.cfi_offset 6, -16
	movq	%rsp, %rbp
	.cfi_def_cfa_register 6
	pushq	%r12
	.cfi_offset 12, -24
.LBB63:
.LBB59:
	.file 4 "/usr/include/c++/11/iostream"
	.loc 4 74 25 view .LVU205
	leaq	_ZStL8__ioinit(%rip), %r12
	movq	%r12, %rdi
.LBE59:
.LBE63:
	.loc 1 155 5 view .LVU206
	subq	$8, %rsp
.LBB64:
.LBB60:
	.loc 4 74 25 view .LVU207
	call	_ZNSt8ios_base4InitC1Ev@PLT
.LVL61:
	movq	_ZNSt8ios_base4InitD1Ev@GOTPCREL(%rip), %rdi
.LBE60:
.LBE64:
	.loc 1 155 5 view .LVU208
	addq	$8, %rsp
.LBB65:
.LBB61:
	.loc 4 74 25 view .LVU209
	movq	%r12, %rsi
	leaq	__dso_handle(%rip), %rdx
.LBE61:
.LBE65:
	.loc 1 155 5 view .LVU210
	popq	%r12
	popq	%rbp
	.cfi_def_cfa 7, 8
.LBB66:
.LBB62:
	.loc 4 74 25 view .LVU211
	jmp	__cxa_atexit@PLT
.LVL62:
.LBE62:
.LBE66:
	.cfi_endproc
.LFE8510:
	.size	_GLOBAL__sub_I__Z11ProcessDataP14processed_dataPc, .-_GLOBAL__sub_I__Z11ProcessDataP14processed_dataPc
	.section	.init_array,"aw"
	.align 8
	.quad	_GLOBAL__sub_I__Z11ProcessDataP14processed_dataPc
	.local	_ZStL8__ioinit
	.comm	_ZStL8__ioinit,1,1
	.text
.Letext0:
	.section	.text.unlikely
.Letext_cold0:
	.file 5 "<built-in>"
	.file 6 "/usr/lib/gcc/x86_64-linux-gnu/11/include/stddef.h"
	.file 7 "/usr/include/x86_64-linux-gnu/bits/types.h"
	.file 8 "/usr/include/x86_64-linux-gnu/bits/types/__mbstate_t.h"
	.file 9 "/usr/include/x86_64-linux-gnu/bits/types/__fpos_t.h"
	.file 10 "/usr/include/x86_64-linux-gnu/bits/types/__FILE.h"
	.file 11 "/usr/include/x86_64-linux-gnu/bits/types/struct_FILE.h"
	.file 12 "/usr/include/x86_64-linux-gnu/bits/types/FILE.h"
	.file 13 "/usr/include/stdio.h"
	.file 14 "/usr/include/stdlib.h"
	.file 15 "/usr/include/x86_64-linux-gnu/bits/stdint-intn.h"
	.file 16 "/usr/include/c++/11/cstdlib"
	.file 17 "/usr/include/c++/11/bits/std_abs.h"
	.file 18 "/usr/include/c++/11/cwchar"
	.file 19 "/usr/include/c++/11/type_traits"
	.file 20 "/usr/include/c++/11/bits/exception_ptr.h"
	.file 21 "/usr/include/x86_64-linux-gnu/c++/11/bits/c++config.h"
	.file 22 "/usr/include/c++/11/concepts"
	.file 23 "/usr/include/c++/11/bits/iterator_concepts.h"
	.file 24 "/usr/include/c++/11/bits/ranges_cmp.h"
	.file 25 "/usr/include/c++/11/compare"
	.file 26 "/usr/include/c++/11/debug/debug.h"
	.file 27 "/usr/include/c++/11/cstdint"
	.file 28 "/usr/include/c++/11/clocale"
	.file 29 "/usr/include/c++/11/numbers"
	.file 30 "/usr/include/c++/11/cstdio"
	.file 31 "/usr/include/c++/11/bits/ios_base.h"
	.file 32 "/usr/include/c++/11/cwctype"
	.file 33 "/usr/include/x86_64-linux-gnu/bits/stdlib-float.h"
	.file 34 "/usr/include/x86_64-linux-gnu/bits/stdlib-bsearch.h"
	.file 35 "/usr/include/x86_64-linux-gnu/bits/stdlib.h"
	.file 36 "/usr/include/c++/11/bits/predefined_ops.h"
	.file 37 "/usr/include/c++/11/stdlib.h"
	.file 38 "/usr/include/x86_64-linux-gnu/bits/types/wint_t.h"
	.file 39 "/usr/include/x86_64-linux-gnu/bits/types/mbstate_t.h"
	.file 40 "/usr/include/wchar.h"
	.file 41 "/usr/include/x86_64-linux-gnu/bits/wchar2.h"
	.file 42 "/usr/include/x86_64-linux-gnu/bits/types/struct_tm.h"
	.file 43 "/usr/include/c++/11/bits/ptr_traits.h"
	.file 44 "/usr/include/x86_64-linux-gnu/bits/stdint-uintn.h"
	.file 45 "/usr/include/stdint.h"
	.file 46 "/usr/include/locale.h"
	.file 47 "/usr/include/x86_64-linux-gnu/bits/stdio.h"
	.file 48 "/usr/include/x86_64-linux-gnu/bits/wctype-wchar.h"
	.file 49 "/usr/include/wctype.h"
	.file 50 "./ATC/Logger/LogConfig.h"
	.file 51 "./ATC/Logger/FunctionLogger.h"
	.file 52 "./ATC/RandomStuff/CommonEnums.h"
	.file 53 "/usr/lib/gcc/x86_64-linux-gnu/11/include/avxintrin.h"
	.file 54 "./include/TypeDef.hpp"
	.file 55 "./include/ProcessData.hpp"
	.file 56 "./ATC/Buffer/my_buffer.h"
	.file 57 "/usr/include/ctype.h"
	.file 58 "/usr/include/c++/11/bits/algorithmfwd.h"
	.section	.data.rel.local.DW.ref.__gxx_personality_v0,"awG",@progbits,DW.ref.__gxx_personality_v0,comdat
	.align 8
	.type	DW.ref.__gxx_personality_v0, @object
	.size	DW.ref.__gxx_personality_v0, 8
DW.ref.__gxx_personality_v0:
	.quad	__gxx_personality_v0
	.hidden	__dso_handle
	.ident	"GCC: (Ubuntu 11.3.0-1ubuntu1~22.04) 11.3.0"
	.section	.note.GNU-stack,"",@progbits
	.section	.note.gnu.property,"a"
	.align 8
	.long	1f - 0f
	.long	4f - 1f
	.long	5
0:
	.string	"GNU"
1:
	.align 8
	.long	0xc0000002
	.long	3f - 2f
2:
	.long	0x3
3:
	.align 8
4:
