	.file	"HashTable.cpp"
	.text
	.section	.rodata.str1.8,"aMS",@progbits,1
	.align 8
.LC0:
	.string	"int AddElementToHashTable(HashTable*, data*, index_)"
	.section	.rodata.str1.1,"aMS",@progbits,1
.LC1:
	.string	"./src/HashTable.cpp"
.LC2:
	.string	"table"
.LC3:
	.string	"element"
	.text
	.p2align 4
	.globl	_Z21AddElementToHashTableP9HashTablePDv4_xj
	.type	_Z21AddElementToHashTableP9HashTablePDv4_xj, @function
_Z21AddElementToHashTableP9HashTablePDv4_xj:
.LFB7314:
	.cfi_startproc
	endbr64
	pushq	%r13
	.cfi_def_cfa_offset 16
	.cfi_offset 13, -16
	pushq	%r12
	.cfi_def_cfa_offset 24
	.cfi_offset 12, -24
	pushq	%rbp
	.cfi_def_cfa_offset 32
	.cfi_offset 6, -32
	testq	%rdi, %rdi
	je	.L9
	movq	%rsi, %rbp
	testq	%rsi, %rsi
	je	.L10
	cmpl	2424(%rdi), %edx
	jnb	.L5
	movl	%edx, %edx
	xorl	%r13d, %r13d
	leaq	(%rdx,%rdx,2), %rax
	leaq	(%rdi,%rax,8), %r12
	movq	%r12, %rdi
	call	_Z17FindElementInListPK4ListPKDv4_x@PLT
	testq	%rax, %rax
	je	.L11
.L1:
	movl	%r13d, %eax
	popq	%rbp
	.cfi_remember_state
	.cfi_def_cfa_offset 24
	popq	%r12
	.cfi_def_cfa_offset 16
	popq	%r13
	.cfi_def_cfa_offset 8
	ret
	.p2align 4,,10
	.p2align 3
.L11:
	.cfi_restore_state
	movq	%rbp, %rsi
	movq	%r12, %rdi
	call	_Z16AddElementToListP4ListPKDv4_x@PLT
	movl	%r13d, %eax
	popq	%rbp
	.cfi_remember_state
	.cfi_def_cfa_offset 24
	popq	%r12
	.cfi_def_cfa_offset 16
	popq	%r13
	.cfi_def_cfa_offset 8
	ret
	.p2align 4,,10
	.p2align 3
.L5:
	.cfi_restore_state
	movl	$-1, %r13d
	jmp	.L1
.L10:
	leaq	.LC0(%rip), %rcx
	movl	$36, %edx
	leaq	.LC1(%rip), %rsi
	leaq	.LC3(%rip), %rdi
	call	__assert_fail@PLT
.L9:
	leaq	.LC0(%rip), %rcx
	movl	$35, %edx
	leaq	.LC1(%rip), %rsi
	leaq	.LC2(%rip), %rdi
	call	__assert_fail@PLT
	.cfi_endproc
.LFE7314:
	.size	_Z21AddElementToHashTableP9HashTablePDv4_xj, .-_Z21AddElementToHashTableP9HashTablePDv4_xj
	.section	.rodata.str1.8
	.align 8
.LC4:
	.string	"int SetHashTable(HashTable*, const processed_data*, hash_func_ptr)"
	.section	.rodata.str1.1
.LC5:
	.string	"src_data"
.LC6:
	.string	"hash_function"
	.text
	.p2align 4
	.globl	_Z12SetHashTableP9HashTablePK14processed_dataPFjPKDv4_xE
	.type	_Z12SetHashTableP9HashTablePK14processed_dataPFjPKDv4_xE, @function
_Z12SetHashTableP9HashTablePK14processed_dataPFjPKDv4_xE:
.LFB7313:
	.cfi_startproc
	endbr64
	pushq	%r14
	.cfi_def_cfa_offset 16
	.cfi_offset 14, -16
	pushq	%r13
	.cfi_def_cfa_offset 24
	.cfi_offset 13, -24
	pushq	%r12
	.cfi_def_cfa_offset 32
	.cfi_offset 12, -32
	pushq	%rbp
	.cfi_def_cfa_offset 40
	.cfi_offset 6, -40
	pushq	%rbx
	.cfi_def_cfa_offset 48
	.cfi_offset 3, -48
	testq	%rdi, %rdi
	je	.L23
	testq	%rsi, %rsi
	je	.L24
	movq	%rdx, %r12
	testq	%rdx, %rdx
	je	.L25
	movq	8(%rsi), %r13
	movq	(%rsi), %rbx
	testq	%r13, %r13
	je	.L16
	movq	%rdi, %rbp
	xorl	%r14d, %r14d
	.p2align 4,,10
	.p2align 3
.L17:
	movq	%rbx, %rdi
	addq	$1, %r14
	call	*%r12
	xorl	%edx, %edx
	movq	%rbx, %rsi
	movq	%rbp, %rdi
	divl	2424(%rbp)
	addq	$32, %rbx
	call	_Z21AddElementToHashTableP9HashTablePDv4_xj
	cmpq	%r14, %r13
	jne	.L17
.L16:
	popq	%rbx
	.cfi_remember_state
	.cfi_def_cfa_offset 40
	xorl	%eax, %eax
	popq	%rbp
	.cfi_def_cfa_offset 32
	popq	%r12
	.cfi_def_cfa_offset 24
	popq	%r13
	.cfi_def_cfa_offset 16
	popq	%r14
	.cfi_def_cfa_offset 8
	ret
.L23:
	.cfi_restore_state
	leaq	.LC4(%rip), %rcx
	movl	$12, %edx
	leaq	.LC1(%rip), %rsi
	leaq	.LC2(%rip), %rdi
	call	__assert_fail@PLT
.L25:
	leaq	.LC4(%rip), %rcx
	movl	$14, %edx
	leaq	.LC1(%rip), %rsi
	leaq	.LC6(%rip), %rdi
	call	__assert_fail@PLT
.L24:
	leaq	.LC4(%rip), %rcx
	movl	$13, %edx
	leaq	.LC1(%rip), %rsi
	leaq	.LC5(%rip), %rdi
	call	__assert_fail@PLT
	.cfi_endproc
.LFE7313:
	.size	_Z12SetHashTableP9HashTablePK14processed_dataPFjPKDv4_xE, .-_Z12SetHashTableP9HashTablePK14processed_dataPFjPKDv4_xE
	.section	.rodata.str1.8
	.align 8
.LC7:
	.string	"int DeleteHashTable(HashTable*)"
	.text
	.p2align 4
	.globl	_Z15DeleteHashTableP9HashTable
	.type	_Z15DeleteHashTableP9HashTable, @function
_Z15DeleteHashTableP9HashTable:
.LFB7315:
	.cfi_startproc
	endbr64
	pushq	%rbp
	.cfi_def_cfa_offset 16
	.cfi_offset 6, -16
	pushq	%rbx
	.cfi_def_cfa_offset 24
	.cfi_offset 3, -24
	subq	$8, %rsp
	.cfi_def_cfa_offset 32
	testq	%rdi, %rdi
	je	.L27
	xorl	%ebx, %ebx
	cmpq	$0, 2424(%rdi)
	movq	%rdi, %rbp
	jne	.L28
	jmp	.L30
	.p2align 4,,10
	.p2align 3
.L36:
	addq	$1, %rbx
	cmpq	%rbx, 2424(%rbp)
	jbe	.L30
.L28:
	leaq	(%rbx,%rbx,2), %rax
	leaq	0(%rbp,%rax,8), %rdi
	call	_Z10DeleteListP4List@PLT
	testl	%eax, %eax
	je	.L36
	addq	$8, %rsp
	.cfi_remember_state
	.cfi_def_cfa_offset 24
	movl	$-1, %eax
	popq	%rbx
	.cfi_def_cfa_offset 16
	popq	%rbp
	.cfi_def_cfa_offset 8
	ret
	.p2align 4,,10
	.p2align 3
.L30:
	.cfi_restore_state
	addq	$8, %rsp
	.cfi_remember_state
	.cfi_def_cfa_offset 24
	xorl	%eax, %eax
	popq	%rbx
	.cfi_def_cfa_offset 16
	popq	%rbp
	.cfi_def_cfa_offset 8
	ret
.L27:
	.cfi_restore_state
	leaq	.LC7(%rip), %rcx
	movl	$56, %edx
	leaq	.LC1(%rip), %rsi
	leaq	.LC2(%rip), %rdi
	call	__assert_fail@PLT
	.cfi_endproc
.LFE7315:
	.size	_Z15DeleteHashTableP9HashTable, .-_Z15DeleteHashTableP9HashTable
	.section	.rodata.str1.8
	.align 8
.LC8:
	.string	"data* FindElementInHashTable(const HashTable*, const data*, hash_func_ptr)"
	.section	.rodata.str1.1
.LC9:
	.string	"func"
	.text
	.p2align 4
	.globl	_Z22FindElementInHashTablePK9HashTablePKDv4_xPFjS4_E
	.type	_Z22FindElementInHashTablePK9HashTablePKDv4_xPFjS4_E, @function
_Z22FindElementInHashTablePK9HashTablePKDv4_xPFjS4_E:
.LFB7316:
	.cfi_startproc
	endbr64
	pushq	%rbp
	.cfi_def_cfa_offset 16
	.cfi_offset 6, -16
	pushq	%rbx
	.cfi_def_cfa_offset 24
	.cfi_offset 3, -24
	subq	$8, %rsp
	.cfi_def_cfa_offset 32
	testq	%rdi, %rdi
	je	.L46
	movq	%rsi, %rbp
	testq	%rsi, %rsi
	je	.L47
	testq	%rdx, %rdx
	je	.L48
	movq	%rdi, %rbx
	movq	%rsi, %rdi
	call	*%rdx
	xorl	%edx, %edx
	movq	%rbp, %rsi
	divl	2424(%rbx)
	leaq	(%rdx,%rdx,2), %rax
	leaq	(%rbx,%rax,8), %rdi
	call	_Z17FindElementInListPK4ListPKDv4_x@PLT
	testq	%rax, %rax
	je	.L37
	movq	16(%rax), %rax
.L37:
	addq	$8, %rsp
	.cfi_remember_state
	.cfi_def_cfa_offset 24
	popq	%rbx
	.cfi_def_cfa_offset 16
	popq	%rbp
	.cfi_def_cfa_offset 8
	ret
.L46:
	.cfi_restore_state
	leaq	.LC8(%rip), %rcx
	movl	$72, %edx
	leaq	.LC1(%rip), %rsi
	leaq	.LC2(%rip), %rdi
	call	__assert_fail@PLT
.L48:
	leaq	.LC8(%rip), %rcx
	movl	$74, %edx
	leaq	.LC1(%rip), %rsi
	leaq	.LC9(%rip), %rdi
	call	__assert_fail@PLT
.L47:
	leaq	.LC8(%rip), %rcx
	movl	$73, %edx
	leaq	.LC1(%rip), %rsi
	leaq	.LC3(%rip), %rdi
	call	__assert_fail@PLT
	.cfi_endproc
.LFE7316:
	.size	_Z22FindElementInHashTablePK9HashTablePKDv4_xPFjS4_E, .-_Z22FindElementInHashTablePK9HashTablePKDv4_xPFjS4_E
	.section	.rodata.str1.8
	.align 8
.LC10:
	.string	"void DumpHashTable(HashTable*, const char*)"
	.section	.rodata.str1.1
.LC11:
	.string	"path_to_file"
.LC12:
	.string	"wa"
	.section	.rodata.str1.8
	.align 8
.LC13:
	.string	"\033[93m(%s:%d)\033[0m couldn't open file '%s'\n"
	.align 8
.LC14:
	.string	"List[%.3lu] (add: %p, number_of_elements: %.4lu) : "
	.section	.rodata.str1.1
.LC15:
	.string	"..."
.LC16:
	.string	"'%s' "
	.text
	.p2align 4
	.globl	_Z13DumpHashTableP9HashTablePKc
	.type	_Z13DumpHashTableP9HashTablePKc, @function
_Z13DumpHashTableP9HashTablePKc:
.LFB7317:
	.cfi_startproc
	endbr64
	pushq	%r15
	.cfi_def_cfa_offset 16
	.cfi_offset 15, -16
	pushq	%r14
	.cfi_def_cfa_offset 24
	.cfi_offset 14, -24
	pushq	%r13
	.cfi_def_cfa_offset 32
	.cfi_offset 13, -32
	pushq	%r12
	.cfi_def_cfa_offset 40
	.cfi_offset 12, -40
	pushq	%rbp
	.cfi_def_cfa_offset 48
	.cfi_offset 6, -48
	pushq	%rbx
	.cfi_def_cfa_offset 56
	.cfi_offset 3, -56
	subq	$24, %rsp
	.cfi_def_cfa_offset 80
	movq	%rdi, 8(%rsp)
	testq	%rdi, %rdi
	je	.L66
	movq	%rsi, %rbx
	testq	%rsi, %rsi
	je	.L67
	leaq	.LC12(%rip), %rsi
	movq	%rbx, %rdi
	call	fopen@PLT
	movq	%rax, %r15
	testq	%rax, %rax
	je	.L52
	movq	8(%rsp), %rax
	xorl	%r12d, %r12d
	leaq	.LC16(%rip), %rbp
	cmpq	$0, 2424(%rax)
	movq	%rax, %rbx
	je	.L59
	.p2align 4,,10
	.p2align 3
.L58:
	movq	16(%rbx), %r9
	xorl	%eax, %eax
	movq	%rbx, %r8
	movq	%r12, %rcx
	leaq	.LC14(%rip), %rdx
	movq	%r15, %rdi
	movq	(%rbx), %r14
	xorl	%r13d, %r13d
	movl	$1, %esi
	call	__fprintf_chk@PLT
	cmpq	$0, 16(%rbx)
	jne	.L54
	jmp	.L55
	.p2align 4,,10
	.p2align 3
.L56:
	cmpq	$17, %r13
	je	.L68
.L54:
	movq	16(%r14), %rcx
	movq	%rbp, %rdx
	movl	$1, %esi
	movq	%r15, %rdi
	xorl	%eax, %eax
	addq	$1, %r13
	call	__fprintf_chk@PLT
	movq	(%r14), %r14
	cmpq	%r13, 16(%rbx)
	ja	.L56
.L55:
	movq	%r15, %rsi
	movl	$10, %edi
	addq	$1, %r12
	addq	$24, %rbx
	call	fputc@PLT
	movq	8(%rsp), %rax
	cmpq	%r12, 2424(%rax)
	ja	.L58
.L59:
	addq	$24, %rsp
	.cfi_remember_state
	.cfi_def_cfa_offset 56
	movq	%r15, %rdi
	popq	%rbx
	.cfi_def_cfa_offset 48
	popq	%rbp
	.cfi_def_cfa_offset 40
	popq	%r12
	.cfi_def_cfa_offset 32
	popq	%r13
	.cfi_def_cfa_offset 24
	popq	%r14
	.cfi_def_cfa_offset 16
	popq	%r15
	.cfi_def_cfa_offset 8
	jmp	fclose@PLT
	.p2align 4,,10
	.p2align 3
.L68:
	.cfi_restore_state
	movq	%r15, %rcx
	movl	$3, %edx
	movl	$1, %esi
	leaq	.LC15(%rip), %rdi
	call	fwrite@PLT
	jmp	.L55
.L66:
	leaq	.LC10(%rip), %rcx
	movl	$90, %edx
	leaq	.LC1(%rip), %rsi
	leaq	.LC2(%rip), %rdi
	call	__assert_fail@PLT
.L52:
	addq	$24, %rsp
	.cfi_remember_state
	.cfi_def_cfa_offset 56
	movq	%rbx, %r8
	movl	$96, %ecx
	xorl	%eax, %eax
	popq	%rbx
	.cfi_def_cfa_offset 48
	leaq	.LC1(%rip), %rdx
	popq	%rbp
	.cfi_def_cfa_offset 40
	movl	$1, %edi
	popq	%r12
	.cfi_def_cfa_offset 32
	leaq	.LC13(%rip), %rsi
	popq	%r13
	.cfi_def_cfa_offset 24
	popq	%r14
	.cfi_def_cfa_offset 16
	popq	%r15
	.cfi_def_cfa_offset 8
	jmp	__printf_chk@PLT
.L67:
	.cfi_restore_state
	leaq	.LC10(%rip), %rcx
	movl	$91, %edx
	leaq	.LC1(%rip), %rsi
	leaq	.LC11(%rip), %rdi
	call	__assert_fail@PLT
	.cfi_endproc
.LFE7317:
	.size	_Z13DumpHashTableP9HashTablePKc, .-_Z13DumpHashTableP9HashTablePKc
	.section	.text.startup,"ax",@progbits
	.p2align 4
	.type	_GLOBAL__sub_I__Z12SetHashTableP9HashTablePK14processed_dataPFjPKDv4_xE, @function
_GLOBAL__sub_I__Z12SetHashTableP9HashTablePK14processed_dataPFjPKDv4_xE:
.LFB7799:
	.cfi_startproc
	endbr64
	pushq	%rbp
	.cfi_def_cfa_offset 16
	.cfi_offset 6, -16
	leaq	_ZStL8__ioinit(%rip), %rbp
	movq	%rbp, %rdi
	call	_ZNSt8ios_base4InitC1Ev@PLT
	movq	_ZNSt8ios_base4InitD1Ev@GOTPCREL(%rip), %rdi
	movq	%rbp, %rsi
	popq	%rbp
	.cfi_def_cfa_offset 8
	leaq	__dso_handle(%rip), %rdx
	jmp	__cxa_atexit@PLT
	.cfi_endproc
.LFE7799:
	.size	_GLOBAL__sub_I__Z12SetHashTableP9HashTablePK14processed_dataPFjPKDv4_xE, .-_GLOBAL__sub_I__Z12SetHashTableP9HashTablePK14processed_dataPFjPKDv4_xE
	.section	.init_array,"aw"
	.align 8
	.quad	_GLOBAL__sub_I__Z12SetHashTableP9HashTablePK14processed_dataPFjPKDv4_xE
	.local	_ZStL8__ioinit
	.comm	_ZStL8__ioinit,1,1
	.hidden	__dso_handle
	.ident	"GCC: (Ubuntu 11.3.0-1ubuntu1~22.04) 11.3.0"
	.section	.note.GNU-stack,"",@progbits
	.section	.note.gnu.property,"a"
	.align 8
	.long	1f - 0f
	.long	4f - 1f
	.long	5
0:
	.string	"GNU"
1:
	.align 8
	.long	0xc0000002
	.long	3f - 2f
2:
	.long	0x3
3:
	.align 8
4:
