	.file	"main.cpp"
	.text
	.section	.rodata.str1.1,"aMS",@progbits,1
.LC0:
	.string	"./src/main.cpp"
	.section	.rodata.str1.8,"aMS",@progbits,1
	.align 8
.LC1:
	.string	"\033[93m(%s:%d)\033[0m Path file to set HashTable\n"
	.text
	.p2align 4
	.globl	_Z4helpv
	.type	_Z4helpv, @function
_Z4helpv:
.LFB7315:
	.cfi_startproc
	endbr64
	movl	$59, %ecx
	leaq	.LC0(%rip), %rdx
	leaq	.LC1(%rip), %rsi
	xorl	%eax, %eax
	movl	$1, %edi
	jmp	__printf_chk@PLT
	.cfi_endproc
.LFE7315:
	.size	_Z4helpv, .-_Z4helpv
	.section	.rodata.str1.1
.LC2:
	.string	"main"
	.section	.rodata.str1.8
	.align 8
.LC3:
	.string	"\033[93m(%s:%d)\033[0m Couldn't get data from '%s'\n"
	.section	.rodata.str1.1
.LC4:
	.string	"resources/temp.csv"
	.section	.text.unlikely,"ax",@progbits
.LCOLDB5:
	.section	.text.startup,"ax",@progbits
.LHOTB5:
	.p2align 4
	.globl	main
	.type	main, @function
main:
.LFB7314:
	.cfi_startproc
	.cfi_personality 0x9b,DW.ref.__gxx_personality_v0
	.cfi_lsda 0x1b,.LLSDA7314
	endbr64
	pushq	%r14
	.cfi_def_cfa_offset 16
	.cfi_offset 14, -16
	leaq	.LC2(%rip), %rdx
	pushq	%r13
	.cfi_def_cfa_offset 24
	.cfi_offset 13, -24
	pushq	%r12
	.cfi_def_cfa_offset 32
	.cfi_offset 12, -32
	movl	%edi, %r12d
	pushq	%rbp
	.cfi_def_cfa_offset 40
	.cfi_offset 6, -40
	pushq	%rbx
	.cfi_def_cfa_offset 48
	.cfi_offset 3, -48
	movq	%rsi, %rbx
	movl	$666, %esi
	subq	$64, %rsp
	.cfi_def_cfa_offset 112
	movq	%fs:40, %rax
	movq	%rax, 56(%rsp)
	xorl	%eax, %eax
	leaq	32(%rsp), %r13
	movq	%r13, %rdi
.LEHB0:
	call	_ZN14FunctionLoggerC1EiPKc@PLT
.LEHE0:
	cmpl	$2, %r12d
	jle	.L14
	movq	8(%rbx), %rbp
	movq	%rsp, %r14
	vpxor	%xmm0, %xmm0, %xmm0
	movq	%r14, %rdi
	vmovdqa	%xmm0, (%rsp)
	movq	%rbp, %rsi
.LEHB1:
	call	_Z17ProcessedDataCtorP14processed_dataPKc@PLT
	testl	%eax, %eax
	jne	.L15
	leaq	.LC4(%rip), %rsi
	movq	%r14, %rdi
	call	_Z15MakeMeasurmentsPK14processed_dataPKc@PLT
	movq	16(%rbx), %rbx
	leaq	16(%rsp), %rbp
	vpxor	%xmm0, %xmm0, %xmm0
	movq	%rbp, %rdi
	vmovdqa	%xmm0, 16(%rsp)
	movq	%rbx, %rsi
	call	_Z17ProcessedDataCtorP14processed_dataPKc@PLT
	movl	%eax, %r12d
	testl	%eax, %eax
	jne	.L16
	movq	%rbp, %rsi
	movq	%r14, %rdi
	call	_Z18MeasureFindingTimePK14processed_dataS1_@PLT
	movq	%r14, %rdi
	call	_Z17ProcessedDataDtorP14processed_data@PLT
	movq	%rbp, %rdi
	call	_Z17ProcessedDataDtorP14processed_data@PLT
.L5:
	movq	%r13, %rdi
	call	_ZN14FunctionLoggerD1Ev@PLT
	movq	56(%rsp), %rax
	subq	%fs:40, %rax
	jne	.L17
	addq	$64, %rsp
	.cfi_remember_state
	.cfi_def_cfa_offset 48
	movl	%r12d, %eax
	popq	%rbx
	.cfi_def_cfa_offset 40
	popq	%rbp
	.cfi_def_cfa_offset 32
	popq	%r12
	.cfi_def_cfa_offset 24
	popq	%r13
	.cfi_def_cfa_offset 16
	popq	%r14
	.cfi_def_cfa_offset 8
	ret
.L14:
	.cfi_restore_state
	call	_Z4helpv
.L7:
	orl	$-1, %r12d
	jmp	.L5
.L15:
	movq	%rbp, %r8
	movl	$28, %ecx
	movl	$1, %edi
	xorl	%eax, %eax
	leaq	.LC0(%rip), %rdx
	leaq	.LC3(%rip), %rsi
	call	__printf_chk@PLT
	jmp	.L7
.L16:
	movq	%rbx, %r8
	movl	$39, %ecx
	movl	$1, %edi
	xorl	%eax, %eax
	leaq	.LC0(%rip), %rdx
	leaq	.LC3(%rip), %rsi
	call	__printf_chk@PLT
	movq	%r14, %rdi
	call	_Z17ProcessedDataDtorP14processed_data@PLT
.LEHE1:
	jmp	.L7
.L17:
	call	__stack_chk_fail@PLT
.L11:
	endbr64
	movq	%rax, %rbp
	jmp	.L9
	.globl	__gxx_personality_v0
	.section	.gcc_except_table,"a",@progbits
.LLSDA7314:
	.byte	0xff
	.byte	0xff
	.byte	0x1
	.uleb128 .LLSDACSE7314-.LLSDACSB7314
.LLSDACSB7314:
	.uleb128 .LEHB0-.LFB7314
	.uleb128 .LEHE0-.LEHB0
	.uleb128 0
	.uleb128 0
	.uleb128 .LEHB1-.LFB7314
	.uleb128 .LEHE1-.LEHB1
	.uleb128 .L11-.LFB7314
	.uleb128 0
.LLSDACSE7314:
	.section	.text.startup
	.cfi_endproc
	.section	.text.unlikely
	.cfi_startproc
	.cfi_personality 0x9b,DW.ref.__gxx_personality_v0
	.cfi_lsda 0x1b,.LLSDAC7314
	.type	main.cold, @function
main.cold:
.LFSB7314:
.L9:
	.cfi_def_cfa_offset 112
	.cfi_offset 3, -48
	.cfi_offset 6, -40
	.cfi_offset 12, -32
	.cfi_offset 13, -24
	.cfi_offset 14, -16
	movq	%r13, %rdi
	vzeroupper
	call	_ZN14FunctionLoggerD1Ev@PLT
	movq	%rbp, %rdi
.LEHB2:
	call	_Unwind_Resume@PLT
.LEHE2:
	.cfi_endproc
.LFE7314:
	.section	.gcc_except_table
.LLSDAC7314:
	.byte	0xff
	.byte	0xff
	.byte	0x1
	.uleb128 .LLSDACSEC7314-.LLSDACSBC7314
.LLSDACSBC7314:
	.uleb128 .LEHB2-.LCOLDB5
	.uleb128 .LEHE2-.LEHB2
	.uleb128 0
	.uleb128 0
.LLSDACSEC7314:
	.section	.text.unlikely
	.section	.text.startup
	.size	main, .-main
	.section	.text.unlikely
	.size	main.cold, .-main.cold
.LCOLDE5:
	.section	.text.startup
.LHOTE5:
	.p2align 4
	.type	_GLOBAL__sub_I_main, @function
_GLOBAL__sub_I_main:
.LFB7797:
	.cfi_startproc
	endbr64
	pushq	%rbp
	.cfi_def_cfa_offset 16
	.cfi_offset 6, -16
	leaq	_ZStL8__ioinit(%rip), %rbp
	movq	%rbp, %rdi
	call	_ZNSt8ios_base4InitC1Ev@PLT
	movq	_ZNSt8ios_base4InitD1Ev@GOTPCREL(%rip), %rdi
	movq	%rbp, %rsi
	popq	%rbp
	.cfi_def_cfa_offset 8
	leaq	__dso_handle(%rip), %rdx
	jmp	__cxa_atexit@PLT
	.cfi_endproc
.LFE7797:
	.size	_GLOBAL__sub_I_main, .-_GLOBAL__sub_I_main
	.section	.init_array,"aw"
	.align 8
	.quad	_GLOBAL__sub_I_main
	.local	_ZStL8__ioinit
	.comm	_ZStL8__ioinit,1,1
	.hidden	DW.ref.__gxx_personality_v0
	.weak	DW.ref.__gxx_personality_v0
	.section	.data.rel.local.DW.ref.__gxx_personality_v0,"awG",@progbits,DW.ref.__gxx_personality_v0,comdat
	.align 8
	.type	DW.ref.__gxx_personality_v0, @object
	.size	DW.ref.__gxx_personality_v0, 8
DW.ref.__gxx_personality_v0:
	.quad	__gxx_personality_v0
	.hidden	__dso_handle
	.ident	"GCC: (Ubuntu 11.3.0-1ubuntu1~22.04) 11.3.0"
	.section	.note.GNU-stack,"",@progbits
	.section	.note.gnu.property,"a"
	.align 8
	.long	1f - 0f
	.long	4f - 1f
	.long	5
0:
	.string	"GNU"
1:
	.align 8
	.long	0xc0000002
	.long	3f - 2f
2:
	.long	0x3
3:
	.align 8
4:
